
========================================================================

** ELF Header Information

    File Name: ..\..\Output\atk_f460.axf

    Machine class: ELFCLASS32 (32-bit)
    Data encoding: ELFDATA2LSB (Little endian)
    Header version: EV_CURRENT (Current version)
    Operating System ABI: none
    ABI Version: 0
    File Type: ET_EXEC (Executable) (2)
    Machine: EM_ARM (ARM)

    Image Entry point: 0x080001ad
    Flags: EF_ARM_HASENTRY (0x05000002)

    ARM ELF revision: 5 (ABI version 2)

    Conforms to Base float procedure-call standard

    Built with
    Component: ARM Compiler 5.06 update 7 (build 960) Tool: armasm [4d35fa]
    Component: ARM Compiler 5.06 update 7 (build 960) Tool: armlink [4d3601]

    Header size: 52 bytes (0x34)
    Program header entry size: 32 bytes (0x20)
    Section header entry size: 40 bytes (0x28)

    Program header entries: 1
    Section header entries: 16

    Program header offset: 312488 (0x0004c4a8)
    Section header offset: 312520 (0x0004c4c8)

    Section header string table index: 15

========================================================================

** Program header #0 (PT_LOAD) [PF_X + PF_W + PF_R + PF_ARM_ENTRY]
    Size : 61188 bytes (14696 bytes in file)
    Virtual address: 0x08000000 (Alignment 8)


========================================================================

** Section #1 'ER_IROM1' (SHT_PROGBITS) [SHF_ALLOC + SHF_EXECINSTR]
    Size   : 14628 bytes (alignment 4)
    Address: 0x08000000

    $d.realdata
    RESET
    __Vectors
        0x08000000:    2000b5e0    ...     DCD    536917472
        0x08000004:    080001c5    ....    DCD    134218181
        0x08000008:    08000523    #...    DCD    134219043
        0x0800000c:    0800051b    ....    DCD    134219035
        0x08000010:    0800051f    ....    DCD    134219039
        0x08000014:    080002ff    ....    DCD    134218495
        0x08000018:    080009a9    ....    DCD    134220201
        0x0800001c:    00000000    ....    DCD    0
        0x08000020:    00000000    ....    DCD    0
        0x08000024:    00000000    ....    DCD    0
        0x08000028:    00000000    ....    DCD    0
        0x0800002c:    08000765    e...    DCD    134219621
        0x08000030:    08000399    ....    DCD    134218649
        0x08000034:    00000000    ....    DCD    0
        0x08000038:    08000551    Q...    DCD    134219089
        0x0800003c:    08000769    i...    DCD    134219625
        0x08000040:    080001df    ....    DCD    134218207
        0x08000044:    080001df    ....    DCD    134218207
        0x08000048:    080001df    ....    DCD    134218207
        0x0800004c:    080001df    ....    DCD    134218207
        0x08000050:    080001df    ....    DCD    134218207
        0x08000054:    080001df    ....    DCD    134218207
        0x08000058:    080001df    ....    DCD    134218207
        0x0800005c:    080001df    ....    DCD    134218207
        0x08000060:    080001df    ....    DCD    134218207
        0x08000064:    080001df    ....    DCD    134218207
        0x08000068:    080001df    ....    DCD    134218207
        0x0800006c:    080001df    ....    DCD    134218207
        0x08000070:    080001df    ....    DCD    134218207
        0x08000074:    080001df    ....    DCD    134218207
        0x08000078:    080001df    ....    DCD    134218207
        0x0800007c:    080001df    ....    DCD    134218207
        0x08000080:    080001df    ....    DCD    134218207
        0x08000084:    080001df    ....    DCD    134218207
        0x08000088:    080001df    ....    DCD    134218207
        0x0800008c:    080001df    ....    DCD    134218207
        0x08000090:    080001df    ....    DCD    134218207
        0x08000094:    080001df    ....    DCD    134218207
        0x08000098:    080001df    ....    DCD    134218207
        0x0800009c:    080001df    ....    DCD    134218207
        0x080000a0:    080001df    ....    DCD    134218207
        0x080000a4:    080001df    ....    DCD    134218207
        0x080000a8:    080001df    ....    DCD    134218207
        0x080000ac:    080001df    ....    DCD    134218207
        0x080000b0:    080008f9    ....    DCD    134220025
        0x080000b4:    0800091d    ....    DCD    134220061
        0x080000b8:    08000939    9...    DCD    134220089
        0x080000bc:    080001df    ....    DCD    134218207
        0x080000c0:    080001df    ....    DCD    134218207
        0x080000c4:    080001df    ....    DCD    134218207
        0x080000c8:    080001df    ....    DCD    134218207
        0x080000cc:    080001df    ....    DCD    134218207
        0x080000d0:    080001df    ....    DCD    134218207
        0x080000d4:    080001df    ....    DCD    134218207
        0x080000d8:    080001df    ....    DCD    134218207
        0x080000dc:    080001df    ....    DCD    134218207
        0x080000e0:    080001df    ....    DCD    134218207
        0x080000e4:    080001df    ....    DCD    134218207
        0x080000e8:    080001df    ....    DCD    134218207
        0x080000ec:    080001df    ....    DCD    134218207
        0x080000f0:    080001df    ....    DCD    134218207
        0x080000f4:    080001df    ....    DCD    134218207
        0x080000f8:    080001df    ....    DCD    134218207
        0x080000fc:    080001df    ....    DCD    134218207
        0x08000100:    080001df    ....    DCD    134218207
        0x08000104:    080001df    ....    DCD    134218207
        0x08000108:    08000955    U...    DCD    134220117
        0x0800010c:    080001df    ....    DCD    134218207
        0x08000110:    080001df    ....    DCD    134218207
        0x08000114:    080001df    ....    DCD    134218207
        0x08000118:    08000971    q...    DCD    134220145
        0x0800011c:    0800098d    ....    DCD    134220173
        0x08000120:    080001df    ....    DCD    134218207
        0x08000124:    080001df    ....    DCD    134218207
        0x08000128:    08000305    ....    DCD    134218501
        0x0800012c:    08000351    Q...    DCD    134218577
        0x08000130:    080001df    ....    DCD    134218207
        0x08000134:    080001df    ....    DCD    134218207
        0x08000138:    080001df    ....    DCD    134218207
        0x0800013c:    080001df    ....    DCD    134218207
        0x08000140:    080001df    ....    DCD    134218207
        0x08000144:    080001df    ....    DCD    134218207
        0x08000148:    080001df    ....    DCD    134218207
        0x0800014c:    080001df    ....    DCD    134218207
        0x08000150:    080001df    ....    DCD    134218207
        0x08000154:    080001df    ....    DCD    134218207
        0x08000158:    080001df    ....    DCD    134218207
        0x0800015c:    080001df    ....    DCD    134218207
        0x08000160:    080001df    ....    DCD    134218207
        0x08000164:    080001df    ....    DCD    134218207
        0x08000168:    080001df    ....    DCD    134218207
        0x0800016c:    080001df    ....    DCD    134218207
        0x08000170:    080001df    ....    DCD    134218207
        0x08000174:    080001df    ....    DCD    134218207
        0x08000178:    080001df    ....    DCD    134218207
        0x0800017c:    00000000    ....    DCD    0
        0x08000180:    080001df    ....    DCD    134218207
        0x08000184:    080001df    ....    DCD    134218207
        0x08000188:    080001df    ....    DCD    134218207
        0x0800018c:    080001df    ....    DCD    134218207
        0x08000190:    080001df    ....    DCD    134218207
        0x08000194:    080001df    ....    DCD    134218207
        0x08000198:    080001df    ....    DCD    134218207
        0x0800019c:    00000000    ....    DCD    0
        0x080001a0:    080001df    ....    DCD    134218207
        0x080001a4:    080001df    ....    DCD    134218207
        0x080001a8:    080001df    ....    DCD    134218207
    $t
    .ARM.Collect$$$$00000000
    .ARM.Collect$$$$00000001
    __Vectors_End
    __main
    _main_stk
        0x080001ac:    f8dfd010    ....    LDR      sp,__lit__00000000 ; [0x80001c0] = 0x2000b5e0
    .ARM.Collect$$$$00000004
    _main_scatterload
        0x080001b0:    f000f874    ..t.    BL       __scatterload ; 0x800029c
    .ARM.Collect$$$$00000008
    .ARM.Collect$$$$0000000A
    .ARM.Collect$$$$0000000B
    __main_after_scatterload
    _main_clock
    _main_cpp_init
    _main_init
        0x080001b4:    4800        .H      LDR      r0,[pc,#0] ; [0x80001b8] = 0x80021ad
        0x080001b6:    4700        .G      BX       r0
    $d
        0x080001b8:    080021ad    .!..    DCD    134226349
    $t
    .ARM.Collect$$$$0000000E
    __rt_lib_shutdown_fini
        0x080001bc:    f3af8000    ....    NOP.W    
    $d
    .ARM.Collect$$$$00002712
    __lit__00000000
    .ARM.Collect$$$$0000000F
    .ARM.Collect$$$$00000011
    __rt_final_cpp
    __rt_final_exit
        0x080001c0:    2000b5e0    ...     DCD    536917472
    $t
    .text
    $v0
    Reset_Handler
        0x080001c4:    4806        .H      LDR      r0,[pc,#24] ; [0x80001e0] = 0x8000771
        0x080001c6:    4780        .G      BLX      r0
        0x080001c8:    4806        .H      LDR      r0,[pc,#24] ; [0x80001e4] = 0x80001ad
        0x080001ca:    4700        .G      BX       r0
        0x080001cc:    e7fe        ..      B        0x80001cc ; Reset_Handler + 8
        0x080001ce:    e7fe        ..      B        0x80001ce ; Reset_Handler + 10
        0x080001d0:    e7fe        ..      B        0x80001d0 ; Reset_Handler + 12
        0x080001d2:    e7fe        ..      B        0x80001d2 ; Reset_Handler + 14
        0x080001d4:    e7fe        ..      B        0x80001d4 ; Reset_Handler + 16
        0x080001d6:    e7fe        ..      B        0x80001d6 ; Reset_Handler + 18
        0x080001d8:    e7fe        ..      B        0x80001d8 ; Reset_Handler + 20
        0x080001da:    e7fe        ..      B        0x80001da ; Reset_Handler + 22
        0x080001dc:    e7fe        ..      B        0x80001dc ; Reset_Handler + 24
    ADC_IRQHandler
    CAN0_EWMC_IRQHandler
    CAN0_RX0_IRQHandler
    CAN0_RX1_IRQHandler
    CAN0_TX_IRQHandler
    CAN1_EWMC_IRQHandler
    CAN1_RX0_IRQHandler
    CAN1_RX1_IRQHandler
    CAN1_TX_IRQHandler
    DCI_IRQHandler
    DMA0_Channel0_IRQHandler
    DMA0_Channel1_IRQHandler
    DMA0_Channel2_IRQHandler
    DMA0_Channel3_IRQHandler
    DMA0_Channel4_IRQHandler
    DMA0_Channel5_IRQHandler
    DMA0_Channel6_IRQHandler
    DMA0_Channel7_IRQHandler
    DMA1_Channel0_IRQHandler
    DMA1_Channel1_IRQHandler
    DMA1_Channel4_IRQHandler
    DMA1_Channel5_IRQHandler
    DMA1_Channel6_IRQHandler
    DMA1_Channel7_IRQHandler
    ENET_IRQHandler
    ENET_WKUP_IRQHandler
    EXMC_IRQHandler
    EXTI0_IRQHandler
    EXTI10_15_IRQHandler
    EXTI1_IRQHandler
    EXTI2_IRQHandler
    EXTI3_IRQHandler
    EXTI4_IRQHandler
    EXTI5_9_IRQHandler
    FMC_IRQHandler
    FPU_IRQHandler
    I2C0_ER_IRQHandler
    I2C0_EV_IRQHandler
    I2C1_ER_IRQHandler
    I2C1_EV_IRQHandler
    I2C2_ER_IRQHandler
    I2C2_EV_IRQHandler
    IPA_IRQHandler
    LVD_IRQHandler
    RCU_CTC_IRQHandler
    RTC_Alarm_IRQHandler
    RTC_WKUP_IRQHandler
    SDIO_IRQHandler
    SPI0_IRQHandler
    SPI1_IRQHandler
    SPI2_IRQHandler
    SPI3_IRQHandler
    SPI4_IRQHandler
    SPI5_IRQHandler
    TAMPER_STAMP_IRQHandler
    TIMER0_BRK_TIMER8_IRQHandler
    TIMER0_Channel_IRQHandler
    TIMER0_TRG_CMT_TIMER10_IRQHandler
    TIMER0_UP_TIMER9_IRQHandler
    TIMER7_BRK_TIMER11_IRQHandler
    TIMER7_Channel_IRQHandler
    TIMER7_TRG_CMT_TIMER13_IRQHandler
    TIMER7_UP_TIMER12_IRQHandler
    TLI_ER_IRQHandler
    TLI_IRQHandler
    TRNG_IRQHandler
    UART3_IRQHandler
    UART4_IRQHandler
    UART6_IRQHandler
    UART7_IRQHandler
    USART0_IRQHandler
    USART1_IRQHandler
    USART2_IRQHandler
    USART5_IRQHandler
    USBFS_IRQHandler
    USBFS_WKUP_IRQHandler
    USBHS_EP1_In_IRQHandler
    USBHS_EP1_Out_IRQHandler
    USBHS_IRQHandler
    USBHS_WKUP_IRQHandler
    WWDGT_IRQHandler
        0x080001de:    e7fe        ..      B        ADC_IRQHandler ; 0x80001de
    $d
        0x080001e0:    08000771    q...    DCD    134219633
        0x080001e4:    080001ad    ....    DCD    134218157
    $t
    .text
    __aeabi_memcpy
    __aeabi_memcpy4
    __aeabi_memcpy8
        0x080001e8:    ea400301    @...    ORR      r3,r0,r1
        0x080001ec:    079b        ..      LSLS     r3,r3,#30
        0x080001ee:    d003        ..      BEQ      0x80001f8 ; __aeabi_memcpy + 16
        0x080001f0:    e009        ..      B        0x8000206 ; __aeabi_memcpy + 30
        0x080001f2:    c908        ..      LDM      r1!,{r3}
        0x080001f4:    1f12        ..      SUBS     r2,r2,#4
        0x080001f6:    c008        ..      STM      r0!,{r3}
        0x080001f8:    2a04        .*      CMP      r2,#4
        0x080001fa:    d2fa        ..      BCS      0x80001f2 ; __aeabi_memcpy + 10
        0x080001fc:    e003        ..      B        0x8000206 ; __aeabi_memcpy + 30
        0x080001fe:    f8113b01    ...;    LDRB     r3,[r1],#1
        0x08000202:    f8003b01    ...;    STRB     r3,[r0],#1
        0x08000206:    1e52        R.      SUBS     r2,r2,#1
        0x08000208:    d2f9        ..      BCS      0x80001fe ; __aeabi_memcpy + 22
        0x0800020a:    4770        pG      BX       lr
    .text
    memcmp
        0x0800020c:    b530        0.      PUSH     {r4,r5,lr}
        0x0800020e:    4604        .F      MOV      r4,r0
        0x08000210:    2000        .       MOVS     r0,#0
        0x08000212:    4603        .F      MOV      r3,r0
        0x08000214:    e000        ..      B        0x8000218 ; memcmp + 12
        0x08000216:    1c5b        [.      ADDS     r3,r3,#1
        0x08000218:    4293        .B      CMP      r3,r2
        0x0800021a:    d203        ..      BCS      0x8000224 ; memcmp + 24
        0x0800021c:    5ce0        .\      LDRB     r0,[r4,r3]
        0x0800021e:    5ccd        .\      LDRB     r5,[r1,r3]
        0x08000220:    1b40        @.      SUBS     r0,r0,r5
        0x08000222:    d0f8        ..      BEQ      0x8000216 ; memcmp + 10
        0x08000224:    bd30        0.      POP      {r4,r5,pc}
    .text
    strcpy
        0x08000226:    4603        .F      MOV      r3,r0
        0x08000228:    f8112b01    ...+    LDRB     r2,[r1],#1
        0x0800022c:    f8002b01    ...+    STRB     r2,[r0],#1
        0x08000230:    2a00        .*      CMP      r2,#0
        0x08000232:    d1f9        ..      BNE      0x8000228 ; strcpy + 2
        0x08000234:    4618        .F      MOV      r0,r3
        0x08000236:    4770        pG      BX       lr
    .text
    __aeabi_uldivmod
        0x08000238:    e92d5ff0    -.._    PUSH     {r4-r12,lr}
        0x0800023c:    4605        .F      MOV      r5,r0
        0x0800023e:    2000        .       MOVS     r0,#0
        0x08000240:    4692        .F      MOV      r10,r2
        0x08000242:    469b        .F      MOV      r11,r3
        0x08000244:    4688        .F      MOV      r8,r1
        0x08000246:    4606        .F      MOV      r6,r0
        0x08000248:    4681        .F      MOV      r9,r0
        0x0800024a:    2440        @$      MOVS     r4,#0x40
        0x0800024c:    e01b        ..      B        0x8000286 ; __aeabi_uldivmod + 78
        0x0800024e:    4628        (F      MOV      r0,r5
        0x08000250:    4641        AF      MOV      r1,r8
        0x08000252:    4647        GF      MOV      r7,r8
        0x08000254:    4622        "F      MOV      r2,r4
        0x08000256:    f000f842    ..B.    BL       __aeabi_llsr ; 0x80002de
        0x0800025a:    4653        SF      MOV      r3,r10
        0x0800025c:    465a        ZF      MOV      r2,r11
        0x0800025e:    1ac0        ..      SUBS     r0,r0,r3
        0x08000260:    4191        .A      SBCS     r1,r1,r2
        0x08000262:    d310        ..      BCC      0x8000286 ; __aeabi_uldivmod + 78
        0x08000264:    4611        .F      MOV      r1,r2
        0x08000266:    4618        .F      MOV      r0,r3
        0x08000268:    4622        "F      MOV      r2,r4
        0x0800026a:    f000f829    ..).    BL       __aeabi_llsl ; 0x80002c0
        0x0800026e:    1a2d        -.      SUBS     r5,r5,r0
        0x08000270:    eb670801    g...    SBC      r8,r7,r1
        0x08000274:    464f        OF      MOV      r7,r9
        0x08000276:    4622        "F      MOV      r2,r4
        0x08000278:    2001        .       MOVS     r0,#1
        0x0800027a:    2100        .!      MOVS     r1,#0
        0x0800027c:    f000f820    .. .    BL       __aeabi_llsl ; 0x80002c0
        0x08000280:    eb170900    ....    ADDS     r9,r7,r0
        0x08000284:    414e        NA      ADCS     r6,r6,r1
        0x08000286:    1e20         .      SUBS     r0,r4,#0
        0x08000288:    f1a40401    ....    SUB      r4,r4,#1
        0x0800028c:    dcdf        ..      BGT      0x800024e ; __aeabi_uldivmod + 22
        0x0800028e:    4648        HF      MOV      r0,r9
        0x08000290:    4631        1F      MOV      r1,r6
        0x08000292:    462a        *F      MOV      r2,r5
        0x08000294:    4643        CF      MOV      r3,r8
        0x08000296:    e8bd9ff0    ....    POP      {r4-r12,pc}
        0x0800029a:    0000        ..      MOVS     r0,r0
    .text
    __scatterload
    __scatterload_rt2
        0x0800029c:    4c06        .L      LDR      r4,[pc,#24] ; [0x80002b8] = 0x8003904
        0x0800029e:    4d07        .M      LDR      r5,[pc,#28] ; [0x80002bc] = 0x8003924
        0x080002a0:    e006        ..      B        0x80002b0 ; __scatterload + 20
        0x080002a2:    68e0        .h      LDR      r0,[r4,#0xc]
        0x080002a4:    f0400301    @...    ORR      r3,r0,#1
        0x080002a8:    e8940007    ....    LDM      r4,{r0-r2}
        0x080002ac:    4798        .G      BLX      r3
        0x080002ae:    3410        .4      ADDS     r4,r4,#0x10
        0x080002b0:    42ac        .B      CMP      r4,r5
        0x080002b2:    d3f6        ..      BCC      0x80002a2 ; __scatterload + 6
        0x080002b4:    f7ffff7e    ..~.    BL       __main_after_scatterload ; 0x80001b4
    $d
        0x080002b8:    08003904    .9..    DCD    134232324
        0x080002bc:    08003924    $9..    DCD    134232356
    $t
    .text
    __aeabi_llsl
    _ll_shift_l
        0x080002c0:    2a20         *      CMP      r2,#0x20
        0x080002c2:    db04        ..      BLT      0x80002ce ; __aeabi_llsl + 14
        0x080002c4:    3a20         :      SUBS     r2,r2,#0x20
        0x080002c6:    fa00f102    ....    LSL      r1,r0,r2
        0x080002ca:    2000        .       MOVS     r0,#0
        0x080002cc:    4770        pG      BX       lr
        0x080002ce:    4091        .@      LSLS     r1,r1,r2
        0x080002d0:    f1c20320    .. .    RSB      r3,r2,#0x20
        0x080002d4:    fa20f303     ...    LSR      r3,r0,r3
        0x080002d8:    4319        .C      ORRS     r1,r1,r3
        0x080002da:    4090        .@      LSLS     r0,r0,r2
        0x080002dc:    4770        pG      BX       lr
    .text
    __aeabi_llsr
    _ll_ushift_r
        0x080002de:    2a20         *      CMP      r2,#0x20
        0x080002e0:    db04        ..      BLT      0x80002ec ; __aeabi_llsr + 14
        0x080002e2:    3a20         :      SUBS     r2,r2,#0x20
        0x080002e4:    fa21f002    !...    LSR      r0,r1,r2
        0x080002e8:    2100        .!      MOVS     r1,#0
        0x080002ea:    4770        pG      BX       lr
        0x080002ec:    fa21f302    !...    LSR      r3,r1,r2
        0x080002f0:    40d0        .@      LSRS     r0,r0,r2
        0x080002f2:    f1c20220    .. .    RSB      r2,r2,#0x20
        0x080002f6:    4091        .@      LSLS     r1,r1,r2
        0x080002f8:    4308        .C      ORRS     r0,r0,r1
        0x080002fa:    4619        .F      MOV      r1,r3
        0x080002fc:    4770        pG      BX       lr
    i.BusFault_Handler
    BusFault_Handler
        0x080002fe:    bf00        ..      NOP      
        0x08000300:    e7fe        ..      B        0x8000300 ; BusFault_Handler + 2
        0x08000302:    0000        ..      MOVS     r0,r0
    i.DMA1_Channel2_IRQHandler
    DMA1_Channel2_IRQHandler
        0x08000304:    b510        ..      PUSH     {r4,lr}
        0x08000306:    2220         "      MOVS     r2,#0x20
        0x08000308:    2102        .!      MOVS     r1,#2
        0x0800030a:    480f        .H      LDR      r0,[pc,#60] ; [0x8000348] = 0x40026400
        0x0800030c:    f001fb74    ..t.    BL       dma_interrupt_flag_get ; 0x80019f8
        0x08000310:    b158        X.      CBZ      r0,0x800032a ; DMA1_Channel2_IRQHandler + 38
        0x08000312:    2220         "      MOVS     r2,#0x20
        0x08000314:    2102        .!      MOVS     r1,#2
        0x08000316:    480c        .H      LDR      r0,[pc,#48] ; [0x8000348] = 0x40026400
        0x08000318:    f001fb4f    ..O.    BL       dma_interrupt_flag_clear ; 0x80019ba
        0x0800031c:    2001        .       MOVS     r0,#1
        0x0800031e:    490b        .I      LDR      r1,[pc,#44] ; [0x800034c] = 0x20000024
        0x08000320:    6008        .`      STR      r0,[r1,#0]
        0x08000322:    2102        .!      MOVS     r1,#2
        0x08000324:    4808        .H      LDR      r0,[pc,#32] ; [0x8000348] = 0x40026400
        0x08000326:    f001faa3    ....    BL       dma_channel_disable ; 0x8001870
        0x0800032a:    2208        ."      MOVS     r2,#8
        0x0800032c:    2102        .!      MOVS     r1,#2
        0x0800032e:    4806        .H      LDR      r0,[pc,#24] ; [0x8000348] = 0x40026400
        0x08000330:    f001fb62    ..b.    BL       dma_interrupt_flag_get ; 0x80019f8
        0x08000334:    b138        8.      CBZ      r0,0x8000346 ; DMA1_Channel2_IRQHandler + 66
        0x08000336:    2208        ."      MOVS     r2,#8
        0x08000338:    2102        .!      MOVS     r1,#2
        0x0800033a:    4803        .H      LDR      r0,[pc,#12] ; [0x8000348] = 0x40026400
        0x0800033c:    f001fb3d    ..=.    BL       dma_interrupt_flag_clear ; 0x80019ba
        0x08000340:    2002        .       MOVS     r0,#2
        0x08000342:    4902        .I      LDR      r1,[pc,#8] ; [0x800034c] = 0x20000024
        0x08000344:    6008        .`      STR      r0,[r1,#0]
        0x08000346:    bd10        ..      POP      {r4,pc}
    $d
        0x08000348:    40026400    .d.@    DCD    1073898496
        0x0800034c:    20000024    $..     DCD    536870948
    $t
    i.DMA1_Channel3_IRQHandler
    DMA1_Channel3_IRQHandler
        0x08000350:    b510        ..      PUSH     {r4,lr}
        0x08000352:    2220         "      MOVS     r2,#0x20
        0x08000354:    2103        .!      MOVS     r1,#3
        0x08000356:    480e        .H      LDR      r0,[pc,#56] ; [0x8000390] = 0x40026400
        0x08000358:    f001fb4e    ..N.    BL       dma_interrupt_flag_get ; 0x80019f8
        0x0800035c:    b140        @.      CBZ      r0,0x8000370 ; DMA1_Channel3_IRQHandler + 32
        0x0800035e:    2220         "      MOVS     r2,#0x20
        0x08000360:    2103        .!      MOVS     r1,#3
        0x08000362:    480b        .H      LDR      r0,[pc,#44] ; [0x8000390] = 0x40026400
        0x08000364:    f001fb29    ..).    BL       dma_interrupt_flag_clear ; 0x80019ba
        0x08000368:    2103        .!      MOVS     r1,#3
        0x0800036a:    4809        .H      LDR      r0,[pc,#36] ; [0x8000390] = 0x40026400
        0x0800036c:    f001fa80    ....    BL       dma_channel_disable ; 0x8001870
        0x08000370:    2208        ."      MOVS     r2,#8
        0x08000372:    2103        .!      MOVS     r1,#3
        0x08000374:    4806        .H      LDR      r0,[pc,#24] ; [0x8000390] = 0x40026400
        0x08000376:    f001fb3f    ..?.    BL       dma_interrupt_flag_get ; 0x80019f8
        0x0800037a:    b138        8.      CBZ      r0,0x800038c ; DMA1_Channel3_IRQHandler + 60
        0x0800037c:    2208        ."      MOVS     r2,#8
        0x0800037e:    2103        .!      MOVS     r1,#3
        0x08000380:    4803        .H      LDR      r0,[pc,#12] ; [0x8000390] = 0x40026400
        0x08000382:    f001fb1a    ....    BL       dma_interrupt_flag_clear ; 0x80019ba
        0x08000386:    2002        .       MOVS     r0,#2
        0x08000388:    4902        .I      LDR      r1,[pc,#8] ; [0x8000394] = 0x20000024
        0x0800038a:    6008        .`      STR      r0,[r1,#0]
        0x0800038c:    bd10        ..      POP      {r4,pc}
    $d
        0x0800038e:    0000        ..      DCW    0
        0x08000390:    40026400    .d.@    DCD    1073898496
        0x08000394:    20000024    $..     DCD    536870948
    $t
    i.DebugMon_Handler
    DebugMon_Handler
        0x08000398:    bf00        ..      NOP      
        0x0800039a:    e7fe        ..      B        0x800039a ; DebugMon_Handler + 2
    i.DeviceRstReason
    DeviceRstReason
        0x0800039c:    b510        ..      PUSH     {r4,lr}
        0x0800039e:    f641501b    A..P    MOV      r0,#0x1d1b
        0x080003a2:    f002f971    ..q.    BL       rcu_flag_get ; 0x8002688
        0x080003a6:    2801        .(      CMP      r0,#1
        0x080003a8:    d102        ..      BNE      0x80003b0 ; DeviceRstReason + 20
        0x080003aa:    a019        ..      ADR      r0,{pc}+0x66 ; 0x8000410
        0x080003ac:    f000fafe    ....    BL       __0printf$8 ; 0x80009ac
        0x080003b0:    f6415019    A..P    MOV      r0,#0x1d19
        0x080003b4:    f002f968    ..h.    BL       rcu_flag_get ; 0x8002688
        0x080003b8:    2801        .(      CMP      r0,#1
        0x080003ba:    d102        ..      BNE      0x80003c2 ; DeviceRstReason + 38
        0x080003bc:    a01b        ..      ADR      r0,{pc}+0x70 ; 0x800042c
        0x080003be:    f000faf5    ....    BL       __0printf$8 ; 0x80009ac
        0x080003c2:    f641501c    A..P    MOV      r0,#0x1d1c
        0x080003c6:    f002f95f    .._.    BL       rcu_flag_get ; 0x8002688
        0x080003ca:    2801        .(      CMP      r0,#1
        0x080003cc:    d102        ..      BNE      0x80003d4 ; DeviceRstReason + 56
        0x080003ce:    a01d        ..      ADR      r0,{pc}+0x76 ; 0x8000444
        0x080003d0:    f000faec    ....    BL       __0printf$8 ; 0x80009ac
        0x080003d4:    f641501d    A..P    MOV      r0,#0x1d1d
        0x080003d8:    f002f956    ..V.    BL       rcu_flag_get ; 0x8002688
        0x080003dc:    2801        .(      CMP      r0,#1
        0x080003de:    d102        ..      BNE      0x80003e6 ; DeviceRstReason + 74
        0x080003e0:    a01f        ..      ADR      r0,{pc}+0x80 ; 0x8000460
        0x080003e2:    f000fae3    ....    BL       __0printf$8 ; 0x80009ac
        0x080003e6:    f641501e    A..P    MOV      r0,#0x1d1e
        0x080003ea:    f002f94d    ..M.    BL       rcu_flag_get ; 0x8002688
        0x080003ee:    2801        .(      CMP      r0,#1
        0x080003f0:    d102        ..      BNE      0x80003f8 ; DeviceRstReason + 92
        0x080003f2:    a025        %.      ADR      r0,{pc}+0x96 ; 0x8000488
        0x080003f4:    f000fada    ....    BL       __0printf$8 ; 0x80009ac
        0x080003f8:    f641501a    A..P    MOV      r0,#0x1d1a
        0x080003fc:    f002f944    ..D.    BL       rcu_flag_get ; 0x8002688
        0x08000400:    2801        .(      CMP      r0,#1
        0x08000402:    d102        ..      BNE      0x800040a ; DeviceRstReason + 110
        0x08000404:    a02a        *.      ADR      r0,{pc}+0xac ; 0x80004b0
        0x08000406:    f000fad1    ....    BL       __0printf$8 ; 0x80009ac
        0x0800040a:    f002f8a1    ....    BL       rcu_all_reset_flag_clear ; 0x8002550
        0x0800040e:    bd10        ..      POP      {r4,pc}
    $d
        0x08000410:    52524f50    PORR    DCD    1381125968
        0x08000414:    503a5453    ST:P    DCD    1345999955
        0x08000418:    7265776f    ower    DCD    1919252335
        0x0800041c:    73657220     res    DCD    1936028192
        0x08000420:    66207465    et f    DCD    1713402981
        0x08000424:    0a67616c    lag.    DCD    174547308
        0x08000428:    00000000    ....    DCD    0
        0x0800042c:    52524f42    BORR    DCD    1381125954
        0x08000430:    423a5453    ST:B    DCD    1111118931
        0x08000434:    7220524f    OR r    DCD    1914720847
        0x08000438:    74657365    eset    DCD    1952805733
        0x0800043c:    616c6620     fla    DCD    1634493984
        0x08000440:    000a7367    gs..    DCD    684903
        0x08000444:    53525753    SWRS    DCD    1397905235
        0x08000448:    6f533a54    T:So    DCD    1867725396
        0x0800044c:    61777466    ftwa    DCD    1635218534
        0x08000450:    72206572    re r    DCD    1914725746
        0x08000454:    74657365    eset    DCD    1952805733
        0x08000458:    616c6620     fla    DCD    1634493984
        0x0800045c:    00000a67    g...    DCD    2663
        0x08000460:    47445746    FWDG    DCD    1195661126
        0x08000464:    54535254    TRST    DCD    1414746708
        0x08000468:    726f463a    :For    DCD    1919895098
        0x0800046c:    64726177    ward    DCD    1685217655
        0x08000470:    74617720     wat    DCD    1952544544
        0x08000474:    6f646863    chdo    DCD    1868851299
        0x08000478:    65722067    g re    DCD    1701978215
        0x0800047c:    20746573    set     DCD    544499059
        0x08000480:    67616c66    flag    DCD    1734437990
        0x08000484:    0000000a    ....    DCD    10
        0x08000488:    47445757    WWDG    DCD    1195661143
        0x0800048c:    54535254    TRST    DCD    1414746708
        0x08000490:    6e69573a    :Win    DCD    1852397370
        0x08000494:    20776f64    dow     DCD    544698212
        0x08000498:    63746177    watc    DCD    1668571511
        0x0800049c:    676f6468    hdog    DCD    1735353448
        0x080004a0:    73657220     res    DCD    1936028192
        0x080004a4:    66207465    et f    DCD    1713402981
        0x080004a8:    0a67616c    lag.    DCD    174547308
        0x080004ac:    00000000    ....    DCD    0
        0x080004b0:    53525045    EPRS    DCD    1397903429
        0x080004b4:    78653a54    T:ex    DCD    2019899988
        0x080004b8:    6e726574    tern    DCD    1852990836
        0x080004bc:    50206c61    al P    DCD    1344302177
        0x080004c0:    72204e49    IN r    DCD    1914719817
        0x080004c4:    74657365    eset    DCD    1952805733
        0x080004c8:    616c6620     fla    DCD    1634493984
        0x080004cc:    00000a67    g...    DCD    2663
    $t
    i.Error_Handler
    Error_Handler
        0x080004d0:    b570        p.      PUSH     {r4-r6,lr}
        0x080004d2:    4605        .F      MOV      r5,r0
        0x080004d4:    460c        .F      MOV      r4,r1
        0x080004d6:    4622        "F      MOV      r2,r4
        0x080004d8:    4629        )F      MOV      r1,r5
        0x080004da:    a003        ..      ADR      r0,{pc}+0xe ; 0x80004e8
        0x080004dc:    f000fa66    ..f.    BL       __0printf$8 ; 0x80009ac
        0x080004e0:    b904        ..      CBNZ     r4,0x80004e4 ; Error_Handler + 20
        0x080004e2:    bd70        p.      POP      {r4-r6,pc}
        0x080004e4:    bf00        ..      NOP      
        0x080004e6:    e7fe        ..      B        0x80004e6 ; Error_Handler + 22
    $d
        0x080004e8:    6e6f7257    Wron    DCD    1852797527
        0x080004ec:    61702067    g pa    DCD    1634738279
        0x080004f0:    656d6172    rame    DCD    1701667186
        0x080004f4:    73726574    ters    DCD    1936876916
        0x080004f8:    6c617620     val    DCD    1818326560
        0x080004fc:    203a6575    ue:     DCD    540697973
        0x08000500:    656c6966    file    DCD    1701603686
        0x08000504:    20732520     %s     DCD    544417056
        0x08000508:    6c206e6f    on l    DCD    1814064751
        0x0800050c:    20656e69    ine     DCD    543518313
        0x08000510:    0a0d6425    %d..    DCD    168649765
        0x08000514:    00000000    ....    DCD    0
    $t
    i.FeedFwdgt
    FeedFwdgt
        0x08000518:    4770        pG      BX       lr
    i.HardFault_Handler
    HardFault_Handler
        0x0800051a:    bf00        ..      NOP      
        0x0800051c:    e7fe        ..      B        0x800051c ; HardFault_Handler + 2
    i.MemManage_Handler
    MemManage_Handler
        0x0800051e:    bf00        ..      NOP      
        0x08000520:    e7fe        ..      B        0x8000520 ; MemManage_Handler + 2
    i.NMI_Handler
    NMI_Handler
        0x08000522:    bf00        ..      NOP      
        0x08000524:    e7fe        ..      B        0x8000524 ; NMI_Handler + 2
        0x08000526:    0000        ..      MOVS     r0,r0
    i.NVIC_SetPriority
    NVIC_SetPriority
        0x08000528:    b510        ..      PUSH     {r4,lr}
        0x0800052a:    2800        .(      CMP      r0,#0
        0x0800052c:    da07        ..      BGE      0x800053e ; NVIC_SetPriority + 22
        0x0800052e:    070a        ..      LSLS     r2,r1,#28
        0x08000530:    0e14        ..      LSRS     r4,r2,#24
        0x08000532:    4a05        .J      LDR      r2,[pc,#20] ; [0x8000548] = 0xe000ed18
        0x08000534:    f000030f    ....    AND      r3,r0,#0xf
        0x08000538:    1f1b        ..      SUBS     r3,r3,#4
        0x0800053a:    54d4        .T      STRB     r4,[r2,r3]
        0x0800053c:    e003        ..      B        0x8000546 ; NVIC_SetPriority + 30
        0x0800053e:    070a        ..      LSLS     r2,r1,#28
        0x08000540:    0e13        ..      LSRS     r3,r2,#24
        0x08000542:    4a02        .J      LDR      r2,[pc,#8] ; [0x800054c] = 0xe000e400
        0x08000544:    5413        .T      STRB     r3,[r2,r0]
        0x08000546:    bd10        ..      POP      {r4,pc}
    $d
        0x08000548:    e000ed18    ....    DCD    3758157080
        0x0800054c:    e000e400    ....    DCD    3758154752
    $t
    i.PendSV_Handler
    PendSV_Handler
        0x08000550:    bf00        ..      NOP      
        0x08000552:    e7fe        ..      B        0x8000552 ; PendSV_Handler + 2
    i.PrintfLogo
    PrintfLogo
        0x08000554:    e92d47f0    -..G    PUSH     {r4-r10,lr}
        0x08000558:    4829        )H      LDR      r0,[pc,#164] ; [0x8000600] = 0x1fff7a10
        0x0800055a:    6805        .h      LDR      r5,[r0,#0]
        0x0800055c:    1d00        ..      ADDS     r0,r0,#4
        0x0800055e:    6806        .h      LDR      r6,[r0,#0]
        0x08000560:    1d00        ..      ADDS     r0,r0,#4
        0x08000562:    6807        .h      LDR      r7,[r0,#0]
        0x08000564:    4827        'H      LDR      r0,[pc,#156] ; [0x8000604] = 0x20000004
        0x08000566:    6800        .h      LDR      r0,[r0,#0]
        0x08000568:    4927        'I      LDR      r1,[pc,#156] ; [0x8000608] = 0xf4240
        0x0800056a:    fbb0f8f1    ....    UDIV     r8,r0,r1
        0x0800056e:    4641        AF      MOV      r1,r8
        0x08000570:    a026        &.      ADR      r0,{pc}+0x9c ; 0x800060c
        0x08000572:    f000fa1b    ....    BL       __0printf$8 ; 0x80009ac
        0x08000576:    462b        +F      MOV      r3,r5
        0x08000578:    4632        2F      MOV      r2,r6
        0x0800057a:    4639        9F      MOV      r1,r7
        0x0800057c:    a031        1.      ADR      r0,{pc}+0xc8 ; 0x8000644
        0x0800057e:    f000fa15    ....    BL       __0printf$8 ; 0x80009ac
        0x08000582:    a035        5.      ADR      r0,{pc}+0xd6 ; 0x8000658
        0x08000584:    f000fa12    ....    BL       __0printf$8 ; 0x80009ac
        0x08000588:    2000        .       MOVS     r0,#0
        0x0800058a:    f001ffeb    ....    BL       rcu_clock_freq_get ; 0x8002564
        0x0800058e:    4605        .F      MOV      r5,r0
        0x08000590:    2001        .       MOVS     r0,#1
        0x08000592:    f001ffe7    ....    BL       rcu_clock_freq_get ; 0x8002564
        0x08000596:    4607        .F      MOV      r7,r0
        0x08000598:    2002        .       MOVS     r0,#2
        0x0800059a:    f001ffe3    ....    BL       rcu_clock_freq_get ; 0x8002564
        0x0800059e:    4680        .F      MOV      r8,r0
        0x080005a0:    2003        .       MOVS     r0,#3
        0x080005a2:    f001ffdf    ....    BL       rcu_clock_freq_get ; 0x8002564
        0x080005a6:    4681        .F      MOV      r9,r0
        0x080005a8:    4629        )F      MOV      r1,r5
        0x080005aa:    a02c        ,.      ADR      r0,{pc}+0xb2 ; 0x800065c
        0x080005ac:    f000f9fe    ....    BL       __0printf$8 ; 0x80009ac
        0x080005b0:    4815        .H      LDR      r0,[pc,#84] ; [0x8000608] = 0xf4240
        0x080005b2:    fbb5f6f0    ....    UDIV     r6,r5,r0
        0x080005b6:    4631        1F      MOV      r1,r6
        0x080005b8:    a031        1.      ADR      r0,{pc}+0xc8 ; 0x8000680
        0x080005ba:    f000f9f7    ....    BL       __0printf$8 ; 0x80009ac
        0x080005be:    4639        9F      MOV      r1,r7
        0x080005c0:    a038        8.      ADR      r0,{pc}+0xe4 ; 0x80006a4
        0x080005c2:    f000f9f3    ....    BL       __0printf$8 ; 0x80009ac
        0x080005c6:    4641        AF      MOV      r1,r8
        0x080005c8:    a03e        >.      ADR      r0,{pc}+0xfc ; 0x80006c4
        0x080005ca:    f000f9ef    ....    BL       __0printf$8 ; 0x80009ac
        0x080005ce:    4649        IF      MOV      r1,r9
        0x080005d0:    a044        D.      ADR      r0,{pc}+0x114 ; 0x80006e4
        0x080005d2:    f000f9eb    ....    BL       __0printf$8 ; 0x80009ac
        0x080005d6:    a04b        K.      ADR      r0,{pc}+0x12e ; 0x8000704
        0x080005d8:    f000f9e8    ....    BL       __0printf$8 ; 0x80009ac
        0x080005dc:    2400        .$      MOVS     r4,#0
        0x080005de:    f001fcaf    ....    BL       gd32f4xx_firmware_version_get ; 0x8001f40
        0x080005e2:    4604        .F      MOV      r4,r0
        0x080005e4:    0e21        !.      LSRS     r1,r4,#24
        0x080005e6:    f3c42307    ...#    UBFX     r3,r4,#8,#8
        0x080005ea:    f3c44207    ...B    UBFX     r2,r4,#16,#8
        0x080005ee:    a04f        O.      ADR      r0,{pc}+0x13e ; 0x800072c
        0x080005f0:    f000f9dc    ....    BL       __0printf$8 ; 0x80009ac
        0x080005f4:    a059        Y.      ADR      r0,{pc}+0x168 ; 0x800075c
        0x080005f6:    f000f9d9    ....    BL       __0printf$8 ; 0x80009ac
        0x080005fa:    e8bd87f0    ....    POP      {r4-r10,pc}
    $d
        0x080005fe:    0000        ..      DCW    0
        0x08000600:    1fff7a10    .z..    DCD    536836624
        0x08000604:    20000004    ...     DCD    536870916
        0x08000608:    000f4240    @B..    DCD    1000000
        0x0800060c:    50430a0d    ..CP    DCD    1346570765
        0x08000610:    203a2055    U :     DCD    540680277
        0x08000614:    32334447    GD32    DCD    842220615
        0x08000618:    30353446    F450    DCD    808793158
        0x0800061c:    202c4756    VG,     DCD    539772758
        0x08000620:    5046514c    LQFP    DCD    1346785612
        0x08000624:    2c303031    100,    DCD    741355569
        0x08000628:    30343220     240    DCD    808727072
        0x0800062c:    2c7a484d    MHz,    DCD    746211405
        0x08000630:    bbb8e420     ...    DCD    3149456416
        0x08000634:    3a91a2e9    ...:    DCD    982622953
        0x08000638:    4d642520     %dM    DCD    1298408736
        0x0800063c:    0a0d7a48    Hz..    DCD    168655432
        0x08000640:    00000000    ....    DCD    0
        0x08000644:    20444955    UID     DCD    541346133
        0x08000648:    3025203d    = %0    DCD    807739453
        0x0800064c:    25205838    8X %    DCD    622876728
        0x08000650:    20583830    08X     DCD    542652464
        0x08000654:    58383025    %08X    DCD    1480077349
        0x08000658:    00000d0a    ....    DCD    3338
        0x0800065c:    43535953    SYSC    DCD    1129535827
        0x08000660:    28204b4c    LK (    DCD    673205068
        0x08000664:    e7bbb3e7    ....    DCD    3887838183
        0x08000668:    97e69fbb    ....    DCD    2548473787
        0x0800066c:    9f92e9b6    ....    DCD    2677205430
        0x08000670:    20202029    )       DCD    538976297
        0x08000674:    6425203a    : %d    DCD    1680154682
        0x08000678:    0d7a4820     Hz.    DCD    226117664
        0x0800067c:    0000000a    ....    DCD    10
        0x08000680:    43535953    SYSC    DCD    1129535827
        0x08000684:    28204b4c    LK (    DCD    673205068
        0x08000688:    e7bbb3e7    ....    DCD    3887838183
        0x0800068c:    97e69fbb    ....    DCD    2548473787
        0x08000690:    9f92e9b6    ....    DCD    2677205430
        0x08000694:    20202029    )       DCD    538976297
        0x08000698:    6425203a    : %d    DCD    1680154682
        0x0800069c:    7a484d20     MHz    DCD    2051558688
        0x080006a0:    00000a0d    ....    DCD    2573
        0x080006a4:    20424841    AHB     DCD    541214785
        0x080006a8:    28202020       (    DCD    673194016
        0x080006ac:    4b4c4348    HCLK    DCD    1263289160
        0x080006b0:    20202029    )       DCD    538976297
        0x080006b4:    20202020            DCD    538976288
        0x080006b8:    6425203a    : %d    DCD    1680154682
        0x080006bc:    0d7a4820     Hz.    DCD    226117664
        0x080006c0:    0000000a    ....    DCD    10
        0x080006c4:    31425041    APB1    DCD    826429505
        0x080006c8:    28202020       (    DCD    673194016
        0x080006cc:    4b4c4350    PCLK    DCD    1263289168
        0x080006d0:    20202931    1)      DCD    538978609
        0x080006d4:    20202020            DCD    538976288
        0x080006d8:    6425203a    : %d    DCD    1680154682
        0x080006dc:    0d7a4820     Hz.    DCD    226117664
        0x080006e0:    0000000a    ....    DCD    10
        0x080006e4:    32425041    APB2    DCD    843206721
        0x080006e8:    28202020       (    DCD    673194016
        0x080006ec:    4b4c4350    PCLK    DCD    1263289168
        0x080006f0:    20202932    2)      DCD    538978610
        0x080006f4:    20202020            DCD    538976288
        0x080006f8:    6425203a    : %d    DCD    1680154682
        0x080006fc:    0d7a4820     Hz.    DCD    226117664
        0x08000700:    0000000a    ....    DCD    10
        0x08000704:    3d3d3d3d    ====    DCD    1027423549
        0x08000708:    3d3d3d3d    ====    DCD    1027423549
        0x0800070c:    3d3d3d3d    ====    DCD    1027423549
        0x08000710:    3d3d3d3d    ====    DCD    1027423549
        0x08000714:    3d3d3d3d    ====    DCD    1027423549
        0x08000718:    3d3d3d3d    ====    DCD    1027423549
        0x0800071c:    3d3d3d3d    ====    DCD    1027423549
        0x08000720:    3d3d3d3d    ====    DCD    1027423549
        0x08000724:    0d3d3d3d    ===.    DCD    222117181
        0x08000728:    000a0d0a    ....    DCD    658698
        0x0800072c:    44470a0d    ..GD    DCD    1145506317
        0x08000730:    34463233    32F4    DCD    877015603
        0x08000734:    73207878    xx s    DCD    1931507832
        0x08000738:    65697265    erie    DCD    1701409381
        0x0800073c:    69662073    s fi    DCD    1768300659
        0x08000740:    61776d72    rmwa    DCD    1635216754
        0x08000744:    76206572    re v    DCD    1981834610
        0x08000748:    69737265    ersi    DCD    1769173605
        0x0800074c:    203a6e6f    on:     DCD    540700271
        0x08000750:    2e642556    V%d.    DCD    778315094
        0x08000754:    252e6425    %d.%    DCD    623797285
        0x08000758:    00000064    d...    DCD    100
        0x0800075c:    0a0d202a    * ..    DCD    168632362
        0x08000760:    00000000    ....    DCD    0
    $t
    i.SVC_Handler
    SVC_Handler
        0x08000764:    bf00        ..      NOP      
        0x08000766:    e7fe        ..      B        0x8000766 ; SVC_Handler + 2
    i.SysTick_Handler
    SysTick_Handler
        0x08000768:    b510        ..      PUSH     {r4,lr}
        0x0800076a:    f001f841    ..A.    BL       delay_decrement ; 0x80017f0
        0x0800076e:    bd10        ..      POP      {r4,pc}
    i.SystemInit
    SystemInit
        0x08000770:    b51c        ..      PUSH     {r2-r4,lr}
        0x08000772:    485d        ]H      LDR      r0,[pc,#372] ; [0x80008e8] = 0xe000ed88
        0x08000774:    6800        .h      LDR      r0,[r0,#0]
        0x08000776:    f4400070    @.p.    ORR      r0,r0,#0xf00000
        0x0800077a:    495b        [I      LDR      r1,[pc,#364] ; [0x80008e8] = 0xe000ed88
        0x0800077c:    6008        .`      STR      r0,[r1,#0]
        0x0800077e:    485b        [H      LDR      r0,[pc,#364] ; [0x80008ec] = 0x40023800
        0x08000780:    6800        .h      LDR      r0,[r0,#0]
        0x08000782:    f0400001    @...    ORR      r0,r0,#1
        0x08000786:    4959        YI      LDR      r1,[pc,#356] ; [0x80008ec] = 0x40023800
        0x08000788:    6008        .`      STR      r0,[r1,#0]
        0x0800078a:    bf00        ..      NOP      
        0x0800078c:    4857        WH      LDR      r0,[pc,#348] ; [0x80008ec] = 0x40023800
        0x0800078e:    6800        .h      LDR      r0,[r0,#0]
        0x08000790:    f0000002    ....    AND      r0,r0,#2
        0x08000794:    2800        .(      CMP      r0,#0
        0x08000796:    d0f9        ..      BEQ      0x800078c ; SystemInit + 28
        0x08000798:    4854        TH      LDR      r0,[pc,#336] ; [0x80008ec] = 0x40023800
        0x0800079a:    3008        .0      ADDS     r0,r0,#8
        0x0800079c:    6800        .h      LDR      r0,[r0,#0]
        0x0800079e:    f000000c    ....    AND      r0,r0,#0xc
        0x080007a2:    2808        .(      CMP      r0,#8
        0x080007a4:    d16e        n.      BNE      0x8000884 ; SystemInit + 276
        0x080007a6:    bf00        ..      NOP      
        0x080007a8:    2000        .       MOVS     r0,#0
        0x080007aa:    9001        ..      STR      r0,[sp,#4]
        0x080007ac:    e002        ..      B        0x80007b4 ; SystemInit + 68
        0x080007ae:    9801        ..      LDR      r0,[sp,#4]
        0x080007b0:    1c40        @.      ADDS     r0,r0,#1
        0x080007b2:    9001        ..      STR      r0,[sp,#4]
        0x080007b4:    9801        ..      LDR      r0,[sp,#4]
        0x080007b6:    2850        P(      CMP      r0,#0x50
        0x080007b8:    d3f9        ..      BCC      0x80007ae ; SystemInit + 62
        0x080007ba:    484c        LH      LDR      r0,[pc,#304] ; [0x80008ec] = 0x40023800
        0x080007bc:    3008        .0      ADDS     r0,r0,#8
        0x080007be:    6800        .h      LDR      r0,[r0,#0]
        0x080007c0:    9000        ..      STR      r0,[sp,#0]
        0x080007c2:    9800        ..      LDR      r0,[sp,#0]
        0x080007c4:    f02000f0     ...    BIC      r0,r0,#0xf0
        0x080007c8:    9000        ..      STR      r0,[sp,#0]
        0x080007ca:    9800        ..      LDR      r0,[sp,#0]
        0x080007cc:    f0400080    @...    ORR      r0,r0,#0x80
        0x080007d0:    9000        ..      STR      r0,[sp,#0]
        0x080007d2:    4946        FI      LDR      r1,[pc,#280] ; [0x80008ec] = 0x40023800
        0x080007d4:    3108        .1      ADDS     r1,r1,#8
        0x080007d6:    9800        ..      LDR      r0,[sp,#0]
        0x080007d8:    6008        .`      STR      r0,[r1,#0]
        0x080007da:    2000        .       MOVS     r0,#0
        0x080007dc:    9001        ..      STR      r0,[sp,#4]
        0x080007de:    e002        ..      B        0x80007e6 ; SystemInit + 118
        0x080007e0:    9801        ..      LDR      r0,[sp,#4]
        0x080007e2:    1c40        @.      ADDS     r0,r0,#1
        0x080007e4:    9001        ..      STR      r0,[sp,#4]
        0x080007e6:    9801        ..      LDR      r0,[sp,#4]
        0x080007e8:    2850        P(      CMP      r0,#0x50
        0x080007ea:    d3f9        ..      BCC      0x80007e0 ; SystemInit + 112
        0x080007ec:    483f        ?H      LDR      r0,[pc,#252] ; [0x80008ec] = 0x40023800
        0x080007ee:    3008        .0      ADDS     r0,r0,#8
        0x080007f0:    6800        .h      LDR      r0,[r0,#0]
        0x080007f2:    9000        ..      STR      r0,[sp,#0]
        0x080007f4:    9800        ..      LDR      r0,[sp,#0]
        0x080007f6:    f02000f0     ...    BIC      r0,r0,#0xf0
        0x080007fa:    9000        ..      STR      r0,[sp,#0]
        0x080007fc:    9800        ..      LDR      r0,[sp,#0]
        0x080007fe:    f0400090    @...    ORR      r0,r0,#0x90
        0x08000802:    9000        ..      STR      r0,[sp,#0]
        0x08000804:    4939        9I      LDR      r1,[pc,#228] ; [0x80008ec] = 0x40023800
        0x08000806:    3108        .1      ADDS     r1,r1,#8
        0x08000808:    9800        ..      LDR      r0,[sp,#0]
        0x0800080a:    6008        .`      STR      r0,[r1,#0]
        0x0800080c:    2000        .       MOVS     r0,#0
        0x0800080e:    9001        ..      STR      r0,[sp,#4]
        0x08000810:    e002        ..      B        0x8000818 ; SystemInit + 168
        0x08000812:    9801        ..      LDR      r0,[sp,#4]
        0x08000814:    1c40        @.      ADDS     r0,r0,#1
        0x08000816:    9001        ..      STR      r0,[sp,#4]
        0x08000818:    9801        ..      LDR      r0,[sp,#4]
        0x0800081a:    2850        P(      CMP      r0,#0x50
        0x0800081c:    d3f9        ..      BCC      0x8000812 ; SystemInit + 162
        0x0800081e:    4833        3H      LDR      r0,[pc,#204] ; [0x80008ec] = 0x40023800
        0x08000820:    3008        .0      ADDS     r0,r0,#8
        0x08000822:    6800        .h      LDR      r0,[r0,#0]
        0x08000824:    9000        ..      STR      r0,[sp,#0]
        0x08000826:    9800        ..      LDR      r0,[sp,#0]
        0x08000828:    f02000f0     ...    BIC      r0,r0,#0xf0
        0x0800082c:    9000        ..      STR      r0,[sp,#0]
        0x0800082e:    9800        ..      LDR      r0,[sp,#0]
        0x08000830:    f04000a0    @...    ORR      r0,r0,#0xa0
        0x08000834:    9000        ..      STR      r0,[sp,#0]
        0x08000836:    492d        -I      LDR      r1,[pc,#180] ; [0x80008ec] = 0x40023800
        0x08000838:    3108        .1      ADDS     r1,r1,#8
        0x0800083a:    9800        ..      LDR      r0,[sp,#0]
        0x0800083c:    6008        .`      STR      r0,[r1,#0]
        0x0800083e:    2000        .       MOVS     r0,#0
        0x08000840:    9001        ..      STR      r0,[sp,#4]
        0x08000842:    e002        ..      B        0x800084a ; SystemInit + 218
        0x08000844:    9801        ..      LDR      r0,[sp,#4]
        0x08000846:    1c40        @.      ADDS     r0,r0,#1
        0x08000848:    9001        ..      STR      r0,[sp,#4]
        0x0800084a:    9801        ..      LDR      r0,[sp,#4]
        0x0800084c:    2850        P(      CMP      r0,#0x50
        0x0800084e:    d3f9        ..      BCC      0x8000844 ; SystemInit + 212
        0x08000850:    4826        &H      LDR      r0,[pc,#152] ; [0x80008ec] = 0x40023800
        0x08000852:    3008        .0      ADDS     r0,r0,#8
        0x08000854:    6800        .h      LDR      r0,[r0,#0]
        0x08000856:    9000        ..      STR      r0,[sp,#0]
        0x08000858:    9800        ..      LDR      r0,[sp,#0]
        0x0800085a:    f02000f0     ...    BIC      r0,r0,#0xf0
        0x0800085e:    9000        ..      STR      r0,[sp,#0]
        0x08000860:    9800        ..      LDR      r0,[sp,#0]
        0x08000862:    f04000b0    @...    ORR      r0,r0,#0xb0
        0x08000866:    9000        ..      STR      r0,[sp,#0]
        0x08000868:    4920         I      LDR      r1,[pc,#128] ; [0x80008ec] = 0x40023800
        0x0800086a:    3108        .1      ADDS     r1,r1,#8
        0x0800086c:    9800        ..      LDR      r0,[sp,#0]
        0x0800086e:    6008        .`      STR      r0,[r1,#0]
        0x08000870:    2000        .       MOVS     r0,#0
        0x08000872:    9001        ..      STR      r0,[sp,#4]
        0x08000874:    e002        ..      B        0x800087c ; SystemInit + 268
        0x08000876:    9801        ..      LDR      r0,[sp,#4]
        0x08000878:    1c40        @.      ADDS     r0,r0,#1
        0x0800087a:    9001        ..      STR      r0,[sp,#4]
        0x0800087c:    9801        ..      LDR      r0,[sp,#4]
        0x0800087e:    2850        P(      CMP      r0,#0x50
        0x08000880:    d3f9        ..      BCC      0x8000876 ; SystemInit + 262
        0x08000882:    bf00        ..      NOP      
        0x08000884:    4819        .H      LDR      r0,[pc,#100] ; [0x80008ec] = 0x40023800
        0x08000886:    3008        .0      ADDS     r0,r0,#8
        0x08000888:    6800        .h      LDR      r0,[r0,#0]
        0x0800088a:    f0200003     ...    BIC      r0,r0,#3
        0x0800088e:    4917        .I      LDR      r1,[pc,#92] ; [0x80008ec] = 0x40023800
        0x08000890:    3108        .1      ADDS     r1,r1,#8
        0x08000892:    6008        .`      STR      r0,[r1,#0]
        0x08000894:    20c8        .       MOVS     r0,#0xc8
        0x08000896:    f000fad4    ....    BL       _soft_delay_ ; 0x8000e42
        0x0800089a:    4814        .H      LDR      r0,[pc,#80] ; [0x80008ec] = 0x40023800
        0x0800089c:    6800        .h      LDR      r0,[r0,#0]
        0x0800089e:    4914        .I      LDR      r1,[pc,#80] ; [0x80008f0] = 0xfef6ffff
        0x080008a0:    4008        .@      ANDS     r0,r0,r1
        0x080008a2:    4912        .I      LDR      r1,[pc,#72] ; [0x80008ec] = 0x40023800
        0x080008a4:    6008        .`      STR      r0,[r1,#0]
        0x080008a6:    4608        .F      MOV      r0,r1
        0x080008a8:    6800        .h      LDR      r0,[r0,#0]
        0x080008aa:    f4202080     ..     BIC      r0,r0,#0x40000
        0x080008ae:    6008        .`      STR      r0,[r1,#0]
        0x080008b0:    2000        .       MOVS     r0,#0
        0x080008b2:    490e        .I      LDR      r1,[pc,#56] ; [0x80008ec] = 0x40023800
        0x080008b4:    3108        .1      ADDS     r1,r1,#8
        0x080008b6:    6008        .`      STR      r0,[r1,#0]
        0x080008b8:    bf00        ..      NOP      
        0x080008ba:    480c        .H      LDR      r0,[pc,#48] ; [0x80008ec] = 0x40023800
        0x080008bc:    3008        .0      ADDS     r0,r0,#8
        0x080008be:    6800        .h      LDR      r0,[r0,#0]
        0x080008c0:    2000        .       MOVS     r0,#0
        0x080008c2:    2800        .(      CMP      r0,#0
        0x080008c4:    d1f9        ..      BNE      0x80008ba ; SystemInit + 330
        0x080008c6:    480b        .H      LDR      r0,[pc,#44] ; [0x80008f4] = 0x24003010
        0x080008c8:    4908        .I      LDR      r1,[pc,#32] ; [0x80008ec] = 0x40023800
        0x080008ca:    1d09        ..      ADDS     r1,r1,#4
        0x080008cc:    6008        .`      STR      r0,[r1,#0]
        0x080008ce:    2000        .       MOVS     r0,#0
        0x080008d0:    4906        .I      LDR      r1,[pc,#24] ; [0x80008ec] = 0x40023800
        0x080008d2:    310c        .1      ADDS     r1,r1,#0xc
        0x080008d4:    6008        .`      STR      r0,[r1,#0]
        0x080008d6:    f002fc8b    ....    BL       system_clock_config ; 0x80031f0
        0x080008da:    2100        .!      MOVS     r1,#0
        0x080008dc:    f04f6000    O..`    MOV      r0,#0x8000000
        0x080008e0:    f001fe2a    ..*.    BL       nvic_vector_table_set ; 0x8002538
        0x080008e4:    bd1c        ..      POP      {r2-r4,pc}
    $d
        0x080008e6:    0000        ..      DCW    0
        0x080008e8:    e000ed88    ....    DCD    3758157192
        0x080008ec:    40023800    .8.@    DCD    1073887232
        0x080008f0:    fef6ffff    ....    DCD    4277600255
        0x080008f4:    24003010    .0.$    DCD    603992080
    $t
    i.TIMER1_IRQHandler
    TIMER1_IRQHandler
        0x080008f8:    b510        ..      PUSH     {r4,lr}
        0x080008fa:    2101        .!      MOVS     r1,#1
        0x080008fc:    0788        ..      LSLS     r0,r1,#30
        0x080008fe:    f002fdce    ....    BL       timer_interrupt_flag_get ; 0x800349e
        0x08000902:    b140        @.      CBZ      r0,0x8000916 ; TIMER1_IRQHandler + 30
        0x08000904:    2101        .!      MOVS     r1,#1
        0x08000906:    0788        ..      LSLS     r0,r1,#30
        0x08000908:    f002fdc6    ....    BL       timer_interrupt_flag_clear ; 0x8003498
        0x0800090c:    4802        .H      LDR      r0,[pc,#8] ; [0x8000918] = 0x20000028
        0x0800090e:    6800        .h      LDR      r0,[r0,#0]
        0x08000910:    1c40        @.      ADDS     r0,r0,#1
        0x08000912:    4901        .I      LDR      r1,[pc,#4] ; [0x8000918] = 0x20000028
        0x08000914:    6008        .`      STR      r0,[r1,#0]
        0x08000916:    bd10        ..      POP      {r4,pc}
    $d
        0x08000918:    20000028    (..     DCD    536870952
    $t
    i.TIMER2_IRQHandler
    TIMER2_IRQHandler
        0x0800091c:    b510        ..      PUSH     {r4,lr}
        0x0800091e:    2101        .!      MOVS     r1,#1
        0x08000920:    4804        .H      LDR      r0,[pc,#16] ; [0x8000934] = 0x40000400
        0x08000922:    f002fdbc    ....    BL       timer_interrupt_flag_get ; 0x800349e
        0x08000926:    b118        ..      CBZ      r0,0x8000930 ; TIMER2_IRQHandler + 20
        0x08000928:    2101        .!      MOVS     r1,#1
        0x0800092a:    4802        .H      LDR      r0,[pc,#8] ; [0x8000934] = 0x40000400
        0x0800092c:    f002fdb4    ....    BL       timer_interrupt_flag_clear ; 0x8003498
        0x08000930:    bd10        ..      POP      {r4,pc}
    $d
        0x08000932:    0000        ..      DCW    0
        0x08000934:    40000400    ...@    DCD    1073742848
    $t
    i.TIMER3_IRQHandler
    TIMER3_IRQHandler
        0x08000938:    b510        ..      PUSH     {r4,lr}
        0x0800093a:    2101        .!      MOVS     r1,#1
        0x0800093c:    4804        .H      LDR      r0,[pc,#16] ; [0x8000950] = 0x40000800
        0x0800093e:    f002fdae    ....    BL       timer_interrupt_flag_get ; 0x800349e
        0x08000942:    b118        ..      CBZ      r0,0x800094c ; TIMER3_IRQHandler + 20
        0x08000944:    2101        .!      MOVS     r1,#1
        0x08000946:    4802        .H      LDR      r0,[pc,#8] ; [0x8000950] = 0x40000800
        0x08000948:    f002fda6    ....    BL       timer_interrupt_flag_clear ; 0x8003498
        0x0800094c:    bd10        ..      POP      {r4,pc}
    $d
        0x0800094e:    0000        ..      DCW    0
        0x08000950:    40000800    ...@    DCD    1073743872
    $t
    i.TIMER4_IRQHandler
    TIMER4_IRQHandler
        0x08000954:    b510        ..      PUSH     {r4,lr}
        0x08000956:    2101        .!      MOVS     r1,#1
        0x08000958:    4804        .H      LDR      r0,[pc,#16] ; [0x800096c] = 0x40000c00
        0x0800095a:    f002fda0    ....    BL       timer_interrupt_flag_get ; 0x800349e
        0x0800095e:    b118        ..      CBZ      r0,0x8000968 ; TIMER4_IRQHandler + 20
        0x08000960:    2101        .!      MOVS     r1,#1
        0x08000962:    4802        .H      LDR      r0,[pc,#8] ; [0x800096c] = 0x40000c00
        0x08000964:    f002fd98    ....    BL       timer_interrupt_flag_clear ; 0x8003498
        0x08000968:    bd10        ..      POP      {r4,pc}
    $d
        0x0800096a:    0000        ..      DCW    0
        0x0800096c:    40000c00    ...@    DCD    1073744896
    $t
    i.TIMER5_DAC_IRQHandler
    TIMER5_DAC_IRQHandler
        0x08000970:    b510        ..      PUSH     {r4,lr}
        0x08000972:    2101        .!      MOVS     r1,#1
        0x08000974:    4804        .H      LDR      r0,[pc,#16] ; [0x8000988] = 0x40001000
        0x08000976:    f002fd92    ....    BL       timer_interrupt_flag_get ; 0x800349e
        0x0800097a:    b118        ..      CBZ      r0,0x8000984 ; TIMER5_DAC_IRQHandler + 20
        0x0800097c:    2101        .!      MOVS     r1,#1
        0x0800097e:    4802        .H      LDR      r0,[pc,#8] ; [0x8000988] = 0x40001000
        0x08000980:    f002fd8a    ....    BL       timer_interrupt_flag_clear ; 0x8003498
        0x08000984:    bd10        ..      POP      {r4,pc}
    $d
        0x08000986:    0000        ..      DCW    0
        0x08000988:    40001000    ...@    DCD    1073745920
    $t
    i.TIMER6_IRQHandler
    TIMER6_IRQHandler
        0x0800098c:    b510        ..      PUSH     {r4,lr}
        0x0800098e:    2101        .!      MOVS     r1,#1
        0x08000990:    4804        .H      LDR      r0,[pc,#16] ; [0x80009a4] = 0x40001400
        0x08000992:    f002fd84    ....    BL       timer_interrupt_flag_get ; 0x800349e
        0x08000996:    b118        ..      CBZ      r0,0x80009a0 ; TIMER6_IRQHandler + 20
        0x08000998:    2101        .!      MOVS     r1,#1
        0x0800099a:    4802        .H      LDR      r0,[pc,#8] ; [0x80009a4] = 0x40001400
        0x0800099c:    f002fd7c    ..|.    BL       timer_interrupt_flag_clear ; 0x8003498
        0x080009a0:    bd10        ..      POP      {r4,pc}
    $d
        0x080009a2:    0000        ..      DCW    0
        0x080009a4:    40001400    ...@    DCD    1073746944
    $t
    i.UsageFault_Handler
    UsageFault_Handler
        0x080009a8:    bf00        ..      NOP      
        0x080009aa:    e7fe        ..      B        0x80009aa ; UsageFault_Handler + 2
    i.__0printf$8
    __0printf$8
    __1printf$8
    __2printf
        0x080009ac:    b40f        ..      PUSH     {r0-r3}
        0x080009ae:    4b05        .K      LDR      r3,[pc,#20] ; [0x80009c4] = 0x8001f1d
        0x080009b0:    b510        ..      PUSH     {r4,lr}
        0x080009b2:    a903        ..      ADD      r1,sp,#0xc
        0x080009b4:    4a04        .J      LDR      r2,[pc,#16] ; [0x80009c8] = 0x20000040
        0x080009b6:    9802        ..      LDR      r0,[sp,#8]
        0x080009b8:    f000f818    ....    BL       _printf_core ; 0x80009ec
        0x080009bc:    bc10        ..      POP      {r4}
        0x080009be:    f85dfb14    ]...    LDR      pc,[sp],#0x14
    $d
        0x080009c2:    0000        ..      DCW    0
        0x080009c4:    08001f1d    ....    DCD    134225693
        0x080009c8:    20000040    @..     DCD    536870976
    $t
    i.__scatterload_copy
    __scatterload_copy
        0x080009cc:    e002        ..      B        0x80009d4 ; __scatterload_copy + 8
        0x080009ce:    c808        ..      LDM      r0!,{r3}
        0x080009d0:    1f12        ..      SUBS     r2,r2,#4
        0x080009d2:    c108        ..      STM      r1!,{r3}
        0x080009d4:    2a00        .*      CMP      r2,#0
        0x080009d6:    d1fa        ..      BNE      0x80009ce ; __scatterload_copy + 2
        0x080009d8:    4770        pG      BX       lr
    i.__scatterload_null
    __scatterload_null
        0x080009da:    4770        pG      BX       lr
    i.__scatterload_zeroinit
    __scatterload_zeroinit
        0x080009dc:    2000        .       MOVS     r0,#0
        0x080009de:    e001        ..      B        0x80009e4 ; __scatterload_zeroinit + 8
        0x080009e0:    c101        ..      STM      r1!,{r0}
        0x080009e2:    1f12        ..      SUBS     r2,r2,#4
        0x080009e4:    2a00        .*      CMP      r2,#0
        0x080009e6:    d1fb        ..      BNE      0x80009e0 ; __scatterload_zeroinit + 4
        0x080009e8:    4770        pG      BX       lr
        0x080009ea:    0000        ..      MOVS     r0,r0
    i._printf_core
    _printf_core
        0x080009ec:    e92d4fff    -..O    PUSH     {r0-r11,lr}
        0x080009f0:    b08d        ..      SUB      sp,sp,#0x34
        0x080009f2:    460f        .F      MOV      r7,r1
        0x080009f4:    4605        .F      MOV      r5,r0
        0x080009f6:    2600        .&      MOVS     r6,#0
        0x080009f8:    e006        ..      B        0x8000a08 ; _printf_core + 28
        0x080009fa:    2825        %(      CMP      r0,#0x25
        0x080009fc:    d00b        ..      BEQ      0x8000a16 ; _printf_core + 42
        0x080009fe:    e9dd120f    ....    LDRD     r1,r2,[sp,#0x3c]
        0x08000a02:    4790        .G      BLX      r2
        0x08000a04:    1c6d        m.      ADDS     r5,r5,#1
        0x08000a06:    1c76        v.      ADDS     r6,r6,#1
        0x08000a08:    7828        (x      LDRB     r0,[r5,#0]
        0x08000a0a:    2800        .(      CMP      r0,#0
        0x08000a0c:    d1f5        ..      BNE      0x80009fa ; _printf_core + 14
        0x08000a0e:    b011        ..      ADD      sp,sp,#0x44
        0x08000a10:    4630        0F      MOV      r0,r6
        0x08000a12:    e8bd8ff0    ....    POP      {r4-r11,pc}
        0x08000a16:    2400        .$      MOVS     r4,#0
        0x08000a18:    46a2        .F      MOV      r10,r4
        0x08000a1a:    46a1        .F      MOV      r9,r4
        0x08000a1c:    2201        ."      MOVS     r2,#1
        0x08000a1e:    49e9        .I      LDR      r1,[pc,#932] ; [0x8000dc4] = 0x12809
        0x08000a20:    e000        ..      B        0x8000a24 ; _printf_core + 56
        0x08000a22:    4304        .C      ORRS     r4,r4,r0
        0x08000a24:    f8153f01    ...?    LDRB     r3,[r5,#1]!
        0x08000a28:    3b20         ;      SUBS     r3,r3,#0x20
        0x08000a2a:    fa02f003    ....    LSL      r0,r2,r3
        0x08000a2e:    4208        .B      TST      r0,r1
        0x08000a30:    d1f7        ..      BNE      0x8000a22 ; _printf_core + 54
        0x08000a32:    7828        (x      LDRB     r0,[r5,#0]
        0x08000a34:    282a        *(      CMP      r0,#0x2a
        0x08000a36:    d010        ..      BEQ      0x8000a5a ; _printf_core + 110
        0x08000a38:    f06f022f    o./.    MVN      r2,#0x2f
        0x08000a3c:    7828        (x      LDRB     r0,[r5,#0]
        0x08000a3e:    f1a00130    ..0.    SUB      r1,r0,#0x30
        0x08000a42:    2909        .)      CMP      r1,#9
        0x08000a44:    d814        ..      BHI      0x8000a70 ; _printf_core + 132
        0x08000a46:    eb0a018a    ....    ADD      r1,r10,r10,LSL #2
        0x08000a4a:    eb020141    ..A.    ADD      r1,r2,r1,LSL #1
        0x08000a4e:    f0440402    D...    ORR      r4,r4,#2
        0x08000a52:    eb000a01    ....    ADD      r10,r0,r1
        0x08000a56:    1c6d        m.      ADDS     r5,r5,#1
        0x08000a58:    e7f0        ..      B        0x8000a3c ; _printf_core + 80
        0x08000a5a:    cf01        ..      LDM      r7!,{r0}
        0x08000a5c:    ea5f0a00    _...    MOVS     r10,r0
        0x08000a60:    d503        ..      BPL      0x8000a6a ; _printf_core + 126
        0x08000a62:    f4445400    D..T    ORR      r4,r4,#0x2000
        0x08000a66:    f1ca0a00    ....    RSB      r10,r10,#0
        0x08000a6a:    f0440402    D...    ORR      r4,r4,#2
        0x08000a6e:    1c6d        m.      ADDS     r5,r5,#1
        0x08000a70:    7828        (x      LDRB     r0,[r5,#0]
        0x08000a72:    282e        .(      CMP      r0,#0x2e
        0x08000a74:    d117        ..      BNE      0x8000aa6 ; _printf_core + 186
        0x08000a76:    f8150f01    ....    LDRB     r0,[r5,#1]!
        0x08000a7a:    f0440404    D...    ORR      r4,r4,#4
        0x08000a7e:    282a        *(      CMP      r0,#0x2a
        0x08000a80:    d00e        ..      BEQ      0x8000aa0 ; _printf_core + 180
        0x08000a82:    f06f022f    o./.    MVN      r2,#0x2f
        0x08000a86:    7828        (x      LDRB     r0,[r5,#0]
        0x08000a88:    f1a00130    ..0.    SUB      r1,r0,#0x30
        0x08000a8c:    2909        .)      CMP      r1,#9
        0x08000a8e:    d80a        ..      BHI      0x8000aa6 ; _printf_core + 186
        0x08000a90:    eb090189    ....    ADD      r1,r9,r9,LSL #2
        0x08000a94:    eb020141    ..A.    ADD      r1,r2,r1,LSL #1
        0x08000a98:    eb000901    ....    ADD      r9,r0,r1
        0x08000a9c:    1c6d        m.      ADDS     r5,r5,#1
        0x08000a9e:    e7f2        ..      B        0x8000a86 ; _printf_core + 154
        0x08000aa0:    f8579b04    W...    LDR      r9,[r7],#4
        0x08000aa4:    1c6d        m.      ADDS     r5,r5,#1
        0x08000aa6:    7828        (x      LDRB     r0,[r5,#0]
        0x08000aa8:    286c        l(      CMP      r0,#0x6c
        0x08000aaa:    d00f        ..      BEQ      0x8000acc ; _printf_core + 224
        0x08000aac:    dc06        ..      BGT      0x8000abc ; _printf_core + 208
        0x08000aae:    284c        L(      CMP      r0,#0x4c
        0x08000ab0:    d017        ..      BEQ      0x8000ae2 ; _printf_core + 246
        0x08000ab2:    2868        h(      CMP      r0,#0x68
        0x08000ab4:    d00d        ..      BEQ      0x8000ad2 ; _printf_core + 230
        0x08000ab6:    286a        j(      CMP      r0,#0x6a
        0x08000ab8:    d114        ..      BNE      0x8000ae4 ; _printf_core + 248
        0x08000aba:    e004        ..      B        0x8000ac6 ; _printf_core + 218
        0x08000abc:    2874        t(      CMP      r0,#0x74
        0x08000abe:    d010        ..      BEQ      0x8000ae2 ; _printf_core + 246
        0x08000ac0:    287a        z(      CMP      r0,#0x7a
        0x08000ac2:    d10f        ..      BNE      0x8000ae4 ; _printf_core + 248
        0x08000ac4:    e00d        ..      B        0x8000ae2 ; _printf_core + 246
        0x08000ac6:    f4441400    D...    ORR      r4,r4,#0x200000
        0x08000aca:    e00a        ..      B        0x8000ae2 ; _printf_core + 246
        0x08000acc:    f4441480    D...    ORR      r4,r4,#0x100000
        0x08000ad0:    e001        ..      B        0x8000ad6 ; _printf_core + 234
        0x08000ad2:    f4441440    D.@.    ORR      r4,r4,#0x300000
        0x08000ad6:    7869        ix      LDRB     r1,[r5,#1]
        0x08000ad8:    4281        .B      CMP      r1,r0
        0x08000ada:    d102        ..      BNE      0x8000ae2 ; _printf_core + 246
        0x08000adc:    f5041480    ....    ADD      r4,r4,#0x100000
        0x08000ae0:    1c6d        m.      ADDS     r5,r5,#1
        0x08000ae2:    1c6d        m.      ADDS     r5,r5,#1
        0x08000ae4:    7828        (x      LDRB     r0,[r5,#0]
        0x08000ae6:    286e        n(      CMP      r0,#0x6e
        0x08000ae8:    d01e        ..      BEQ      0x8000b28 ; _printf_core + 316
        0x08000aea:    dc0c        ..      BGT      0x8000b06 ; _printf_core + 282
        0x08000aec:    2863        c(      CMP      r0,#0x63
        0x08000aee:    d030        0.      BEQ      0x8000b52 ; _printf_core + 358
        0x08000af0:    dc04        ..      BGT      0x8000afc ; _printf_core + 272
        0x08000af2:    2800        .(      CMP      r0,#0
        0x08000af4:    d08b        ..      BEQ      0x8000a0e ; _printf_core + 34
        0x08000af6:    2858        X(      CMP      r0,#0x58
        0x08000af8:    d111        ..      BNE      0x8000b1e ; _printf_core + 306
        0x08000afa:    e09f        ..      B        0x8000c3c ; _printf_core + 592
        0x08000afc:    2864        d(      CMP      r0,#0x64
        0x08000afe:    d067        g.      BEQ      0x8000bd0 ; _printf_core + 484
        0x08000b00:    2869        i(      CMP      r0,#0x69
        0x08000b02:    d10c        ..      BNE      0x8000b1e ; _printf_core + 306
        0x08000b04:    e064        d.      B        0x8000bd0 ; _printf_core + 484
        0x08000b06:    2873        s(      CMP      r0,#0x73
        0x08000b08:    d02d        -.      BEQ      0x8000b66 ; _printf_core + 378
        0x08000b0a:    dc04        ..      BGT      0x8000b16 ; _printf_core + 298
        0x08000b0c:    286f        o(      CMP      r0,#0x6f
        0x08000b0e:    d072        r.      BEQ      0x8000bf6 ; _printf_core + 522
        0x08000b10:    2870        p(      CMP      r0,#0x70
        0x08000b12:    d104        ..      BNE      0x8000b1e ; _printf_core + 306
        0x08000b14:    e094        ..      B        0x8000c40 ; _printf_core + 596
        0x08000b16:    2875        u(      CMP      r0,#0x75
        0x08000b18:    d06e        n.      BEQ      0x8000bf8 ; _printf_core + 524
        0x08000b1a:    2878        x(      CMP      r0,#0x78
        0x08000b1c:    d06d        m.      BEQ      0x8000bfa ; _printf_core + 526
        0x08000b1e:    e9dd120f    ....    LDRD     r1,r2,[sp,#0x3c]
        0x08000b22:    4790        .G      BLX      r2
        0x08000b24:    1c76        v.      ADDS     r6,r6,#1
        0x08000b26:    e14b        K.      B        0x8000dc0 ; _printf_core + 980
        0x08000b28:    f3c45002    ...P    UBFX     r0,r4,#20,#3
        0x08000b2c:    2802        .(      CMP      r0,#2
        0x08000b2e:    d006        ..      BEQ      0x8000b3e ; _printf_core + 338
        0x08000b30:    2803        .(      CMP      r0,#3
        0x08000b32:    d009        ..      BEQ      0x8000b48 ; _printf_core + 348
        0x08000b34:    2804        .(      CMP      r0,#4
        0x08000b36:    cf01        ..      LDM      r7!,{r0}
        0x08000b38:    d009        ..      BEQ      0x8000b4e ; _printf_core + 354
        0x08000b3a:    6006        .`      STR      r6,[r0,#0]
        0x08000b3c:    e140        @.      B        0x8000dc0 ; _printf_core + 980
        0x08000b3e:    cf01        ..      LDM      r7!,{r0}
        0x08000b40:    17f1        ..      ASRS     r1,r6,#31
        0x08000b42:    e9c06100    ...a    STRD     r6,r1,[r0,#0]
        0x08000b46:    e13b        ;.      B        0x8000dc0 ; _printf_core + 980
        0x08000b48:    cf01        ..      LDM      r7!,{r0}
        0x08000b4a:    8006        ..      STRH     r6,[r0,#0]
        0x08000b4c:    e138        8.      B        0x8000dc0 ; _printf_core + 980
        0x08000b4e:    7006        .p      STRB     r6,[r0,#0]
        0x08000b50:    e136        6.      B        0x8000dc0 ; _printf_core + 980
        0x08000b52:    f8170b04    ....    LDRB     r0,[r7],#4
        0x08000b56:    f88d0000    ....    STRB     r0,[sp,#0]
        0x08000b5a:    2000        .       MOVS     r0,#0
        0x08000b5c:    f88d0001    ....    STRB     r0,[sp,#1]
        0x08000b60:    46eb        .F      MOV      r11,sp
        0x08000b62:    2001        .       MOVS     r0,#1
        0x08000b64:    e003        ..      B        0x8000b6e ; _printf_core + 386
        0x08000b66:    f857bb04    W...    LDR      r11,[r7],#4
        0x08000b6a:    f04f30ff    O..0    MOV      r0,#0xffffffff
        0x08000b6e:    0761        a.      LSLS     r1,r4,#29
        0x08000b70:    f04f0100    O...    MOV      r1,#0
        0x08000b74:    d402        ..      BMI      0x8000b7c ; _printf_core + 400
        0x08000b76:    e00d        ..      B        0x8000b94 ; _printf_core + 424
        0x08000b78:    f1080101    ....    ADD      r1,r8,#1
        0x08000b7c:    4688        .F      MOV      r8,r1
        0x08000b7e:    4549        IE      CMP      r1,r9
        0x08000b80:    da0f        ..      BGE      0x8000ba2 ; _printf_core + 438
        0x08000b82:    4580        .E      CMP      r8,r0
        0x08000b84:    dbf8        ..      BLT      0x8000b78 ; _printf_core + 396
        0x08000b86:    f81b1008    ....    LDRB     r1,[r11,r8]
        0x08000b8a:    2900        .)      CMP      r1,#0
        0x08000b8c:    d1f4        ..      BNE      0x8000b78 ; _printf_core + 396
        0x08000b8e:    e008        ..      B        0x8000ba2 ; _printf_core + 438
        0x08000b90:    f1080101    ....    ADD      r1,r8,#1
        0x08000b94:    4688        .F      MOV      r8,r1
        0x08000b96:    4281        .B      CMP      r1,r0
        0x08000b98:    dbfa        ..      BLT      0x8000b90 ; _printf_core + 420
        0x08000b9a:    f81b1008    ....    LDRB     r1,[r11,r8]
        0x08000b9e:    2900        .)      CMP      r1,#0
        0x08000ba0:    d1f6        ..      BNE      0x8000b90 ; _printf_core + 420
        0x08000ba2:    e9dd230f    ...#    LDRD     r2,r3,[sp,#0x3c]
        0x08000ba6:    ebaa0008    ....    SUB      r0,r10,r8
        0x08000baa:    4681        .F      MOV      r9,r0
        0x08000bac:    4621        !F      MOV      r1,r4
        0x08000bae:    f000f931    ..1.    BL       _printf_pre_padding ; 0x8000e14
        0x08000bb2:    4430        0D      ADD      r0,r0,r6
        0x08000bb4:    eb000608    ....    ADD      r6,r0,r8
        0x08000bb8:    e004        ..      B        0x8000bc4 ; _printf_core + 472
        0x08000bba:    e9dd120f    ....    LDRD     r1,r2,[sp,#0x3c]
        0x08000bbe:    f81b0b01    ....    LDRB     r0,[r11],#1
        0x08000bc2:    4790        .G      BLX      r2
        0x08000bc4:    f1b80801    ....    SUBS     r8,r8,#1
        0x08000bc8:    d2f7        ..      BCS      0x8000bba ; _printf_core + 462
        0x08000bca:    4621        !F      MOV      r1,r4
        0x08000bcc:    4648        HF      MOV      r0,r9
        0x08000bce:    e0f2        ..      B        0x8000db6 ; _printf_core + 970
        0x08000bd0:    210a        .!      MOVS     r1,#0xa
        0x08000bd2:    f3c45202    ...R    UBFX     r2,r4,#20,#3
        0x08000bd6:    f04f0b00    O...    MOV      r11,#0
        0x08000bda:    9108        ..      STR      r1,[sp,#0x20]
        0x08000bdc:    2a02        .*      CMP      r2,#2
        0x08000bde:    d004        ..      BEQ      0x8000bea ; _printf_core + 510
        0x08000be0:    cf01        ..      LDM      r7!,{r0}
        0x08000be2:    17c1        ..      ASRS     r1,r0,#31
        0x08000be4:    2a03        .*      CMP      r2,#3
        0x08000be6:    d009        ..      BEQ      0x8000bfc ; _printf_core + 528
        0x08000be8:    e00a        ..      B        0x8000c00 ; _printf_core + 532
        0x08000bea:    1dff        ..      ADDS     r7,r7,#7
        0x08000bec:    f0270707    '...    BIC      r7,r7,#7
        0x08000bf0:    e8f70102    ....    LDRD     r0,r1,[r7],#8
        0x08000bf4:    e008        ..      B        0x8000c08 ; _printf_core + 540
        0x08000bf6:    e02c        ,.      B        0x8000c52 ; _printf_core + 614
        0x08000bf8:    e01e        ..      B        0x8000c38 ; _printf_core + 588
        0x08000bfa:    e01f        ..      B        0x8000c3c ; _printf_core + 592
        0x08000bfc:    b200        ..      SXTH     r0,r0
        0x08000bfe:    17c1        ..      ASRS     r1,r0,#31
        0x08000c00:    2a04        .*      CMP      r2,#4
        0x08000c02:    d101        ..      BNE      0x8000c08 ; _printf_core + 540
        0x08000c04:    b240        @.      SXTB     r0,r0
        0x08000c06:    17c1        ..      ASRS     r1,r0,#31
        0x08000c08:    1e02        ..      SUBS     r2,r0,#0
        0x08000c0a:    f1710200    q...    SBCS     r2,r1,#0
        0x08000c0e:    da06        ..      BGE      0x8000c1e ; _printf_core + 562
        0x08000c10:    2300        .#      MOVS     r3,#0
        0x08000c12:    ebd00003    ....    RSBS     r0,r0,r3
        0x08000c16:    eb630101    c...    SBC      r1,r3,r1
        0x08000c1a:    222d        -"      MOVS     r2,#0x2d
        0x08000c1c:    e002        ..      B        0x8000c24 ; _printf_core + 568
        0x08000c1e:    0522        ".      LSLS     r2,r4,#20
        0x08000c20:    d504        ..      BPL      0x8000c2c ; _printf_core + 576
        0x08000c22:    222b        +"      MOVS     r2,#0x2b
        0x08000c24:    f88d2024    ..$     STRB     r2,[sp,#0x24]
        0x08000c28:    2201        ."      MOVS     r2,#1
        0x08000c2a:    e003        ..      B        0x8000c34 ; _printf_core + 584
        0x08000c2c:    07e2        ..      LSLS     r2,r4,#31
        0x08000c2e:    d001        ..      BEQ      0x8000c34 ; _printf_core + 584
        0x08000c30:    2220         "      MOVS     r2,#0x20
        0x08000c32:    e7f7        ..      B        0x8000c24 ; _printf_core + 568
        0x08000c34:    4690        .F      MOV      r8,r2
        0x08000c36:    e053        S.      B        0x8000ce0 ; _printf_core + 756
        0x08000c38:    210a        .!      MOVS     r1,#0xa
        0x08000c3a:    e00b        ..      B        0x8000c54 ; _printf_core + 616
        0x08000c3c:    2110        .!      MOVS     r1,#0x10
        0x08000c3e:    e009        ..      B        0x8000c54 ; _printf_core + 616
        0x08000c40:    2110        .!      MOVS     r1,#0x10
        0x08000c42:    f04f0b00    O...    MOV      r11,#0
        0x08000c46:    f0440404    D...    ORR      r4,r4,#4
        0x08000c4a:    f04f0908    O...    MOV      r9,#8
        0x08000c4e:    9108        ..      STR      r1,[sp,#0x20]
        0x08000c50:    e003        ..      B        0x8000c5a ; _printf_core + 622
        0x08000c52:    2108        .!      MOVS     r1,#8
        0x08000c54:    f04f0b00    O...    MOV      r11,#0
        0x08000c58:    9108        ..      STR      r1,[sp,#0x20]
        0x08000c5a:    f3c45202    ...R    UBFX     r2,r4,#20,#3
        0x08000c5e:    2a02        .*      CMP      r2,#2
        0x08000c60:    d004        ..      BEQ      0x8000c6c ; _printf_core + 640
        0x08000c62:    cf01        ..      LDM      r7!,{r0}
        0x08000c64:    2100        .!      MOVS     r1,#0
        0x08000c66:    2a03        .*      CMP      r2,#3
        0x08000c68:    d006        ..      BEQ      0x8000c78 ; _printf_core + 652
        0x08000c6a:    e006        ..      B        0x8000c7a ; _printf_core + 654
        0x08000c6c:    1dff        ..      ADDS     r7,r7,#7
        0x08000c6e:    f0270707    '...    BIC      r7,r7,#7
        0x08000c72:    e8f70102    ....    LDRD     r0,r1,[r7],#8
        0x08000c76:    e003        ..      B        0x8000c80 ; _printf_core + 660
        0x08000c78:    b280        ..      UXTH     r0,r0
        0x08000c7a:    2a04        .*      CMP      r2,#4
        0x08000c7c:    d100        ..      BNE      0x8000c80 ; _printf_core + 660
        0x08000c7e:    b2c0        ..      UXTB     r0,r0
        0x08000c80:    f04f0800    O...    MOV      r8,#0
        0x08000c84:    0722        ".      LSLS     r2,r4,#28
        0x08000c86:    d52b        +.      BPL      0x8000ce0 ; _printf_core + 756
        0x08000c88:    782a        *x      LDRB     r2,[r5,#0]
        0x08000c8a:    2a70        p*      CMP      r2,#0x70
        0x08000c8c:    d007        ..      BEQ      0x8000c9e ; _printf_core + 690
        0x08000c8e:    f8ddc020    .. .    LDR      r12,[sp,#0x20]
        0x08000c92:    f08c0c10    ....    EOR      r12,r12,#0x10
        0x08000c96:    ea5c0c0b    \...    ORRS     r12,r12,r11
        0x08000c9a:    d005        ..      BEQ      0x8000ca8 ; _printf_core + 700
        0x08000c9c:    e00e        ..      B        0x8000cbc ; _printf_core + 720
        0x08000c9e:    2240        @"      MOVS     r2,#0x40
        0x08000ca0:    f88d2024    ..$     STRB     r2,[sp,#0x24]
        0x08000ca4:    2201        ."      MOVS     r2,#1
        0x08000ca6:    e008        ..      B        0x8000cba ; _printf_core + 718
        0x08000ca8:    ea500301    P...    ORRS     r3,r0,r1
        0x08000cac:    d006        ..      BEQ      0x8000cbc ; _printf_core + 720
        0x08000cae:    2330        0#      MOVS     r3,#0x30
        0x08000cb0:    f88d3024    ..$0    STRB     r3,[sp,#0x24]
        0x08000cb4:    f88d2025    ..%     STRB     r2,[sp,#0x25]
        0x08000cb8:    2202        ."      MOVS     r2,#2
        0x08000cba:    4690        .F      MOV      r8,r2
        0x08000cbc:    9b08        ..      LDR      r3,[sp,#0x20]
        0x08000cbe:    f0830308    ....    EOR      r3,r3,#8
        0x08000cc2:    ea53030b    S...    ORRS     r3,r3,r11
        0x08000cc6:    d10b        ..      BNE      0x8000ce0 ; _printf_core + 756
        0x08000cc8:    ea500201    P...    ORRS     r2,r0,r1
        0x08000ccc:    d101        ..      BNE      0x8000cd2 ; _printf_core + 742
        0x08000cce:    0762        b.      LSLS     r2,r4,#29
        0x08000cd0:    d506        ..      BPL      0x8000ce0 ; _printf_core + 756
        0x08000cd2:    2230        0"      MOVS     r2,#0x30
        0x08000cd4:    f88d2024    ..$     STRB     r2,[sp,#0x24]
        0x08000cd8:    f04f0801    O...    MOV      r8,#1
        0x08000cdc:    f1a90901    ....    SUB      r9,r9,#1
        0x08000ce0:    782a        *x      LDRB     r2,[r5,#0]
        0x08000ce2:    2a58        X*      CMP      r2,#0x58
        0x08000ce4:    d004        ..      BEQ      0x8000cf0 ; _printf_core + 772
        0x08000ce6:    a238        8.      ADR      r2,{pc}+0xe2 ; 0x8000dc8
        0x08000ce8:    920b        ..      STR      r2,[sp,#0x2c]
        0x08000cea:    aa08        ..      ADD      r2,sp,#0x20
        0x08000cec:    920a        ..      STR      r2,[sp,#0x28]
        0x08000cee:    e00b        ..      B        0x8000d08 ; _printf_core + 796
        0x08000cf0:    a23a        :.      ADR      r2,{pc}+0xec ; 0x8000ddc
        0x08000cf2:    e7f9        ..      B        0x8000ce8 ; _printf_core + 764
        0x08000cf4:    465b        [F      MOV      r3,r11
        0x08000cf6:    9a08        ..      LDR      r2,[sp,#0x20]
        0x08000cf8:    f7fffa9e    ....    BL       __aeabi_uldivmod ; 0x8000238
        0x08000cfc:    9b0b        ..      LDR      r3,[sp,#0x2c]
        0x08000cfe:    5c9b        .\      LDRB     r3,[r3,r2]
        0x08000d00:    9a0a        ..      LDR      r2,[sp,#0x28]
        0x08000d02:    1e52        R.      SUBS     r2,r2,#1
        0x08000d04:    920a        ..      STR      r2,[sp,#0x28]
        0x08000d06:    7013        .p      STRB     r3,[r2,#0]
        0x08000d08:    ea500201    P...    ORRS     r2,r0,r1
        0x08000d0c:    d1f2        ..      BNE      0x8000cf4 ; _printf_core + 776
        0x08000d0e:    980a        ..      LDR      r0,[sp,#0x28]
        0x08000d10:    ebad0000    ....    SUB      r0,sp,r0
        0x08000d14:    f1000b20    .. .    ADD      r11,r0,#0x20
        0x08000d18:    0760        `.      LSLS     r0,r4,#29
        0x08000d1a:    d502        ..      BPL      0x8000d22 ; _printf_core + 822
        0x08000d1c:    f4243480    $..4    BIC      r4,r4,#0x10000
        0x08000d20:    e001        ..      B        0x8000d26 ; _printf_core + 826
        0x08000d22:    f04f0901    O...    MOV      r9,#1
        0x08000d26:    45d9        .E      CMP      r9,r11
        0x08000d28:    dd02        ..      BLE      0x8000d30 ; _printf_core + 836
        0x08000d2a:    eba9000b    ....    SUB      r0,r9,r11
        0x08000d2e:    e000        ..      B        0x8000d32 ; _printf_core + 838
        0x08000d30:    2000        .       MOVS     r0,#0
        0x08000d32:    eb00010b    ....    ADD      r1,r0,r11
        0x08000d36:    4441        AD      ADD      r1,r1,r8
        0x08000d38:    9008        ..      STR      r0,[sp,#0x20]
        0x08000d3a:    ebaa0a01    ....    SUB      r10,r10,r1
        0x08000d3e:    03e0        ..      LSLS     r0,r4,#15
        0x08000d40:    d406        ..      BMI      0x8000d50 ; _printf_core + 868
        0x08000d42:    e9dd230f    ...#    LDRD     r2,r3,[sp,#0x3c]
        0x08000d46:    4621        !F      MOV      r1,r4
        0x08000d48:    4650        PF      MOV      r0,r10
        0x08000d4a:    f000f863    ..c.    BL       _printf_pre_padding ; 0x8000e14
        0x08000d4e:    4406        .D      ADD      r6,r6,r0
        0x08000d50:    f04f0900    O...    MOV      r9,#0
        0x08000d54:    e008        ..      B        0x8000d68 ; _printf_core + 892
        0x08000d56:    a909        ..      ADD      r1,sp,#0x24
        0x08000d58:    f8110009    ....    LDRB     r0,[r1,r9]
        0x08000d5c:    e9dd120f    ....    LDRD     r1,r2,[sp,#0x3c]
        0x08000d60:    4790        .G      BLX      r2
        0x08000d62:    f1090901    ....    ADD      r9,r9,#1
        0x08000d66:    1c76        v.      ADDS     r6,r6,#1
        0x08000d68:    45c1        .E      CMP      r9,r8
        0x08000d6a:    dbf4        ..      BLT      0x8000d56 ; _printf_core + 874
        0x08000d6c:    03e0        ..      LSLS     r0,r4,#15
        0x08000d6e:    d50c        ..      BPL      0x8000d8a ; _printf_core + 926
        0x08000d70:    e9dd230f    ...#    LDRD     r2,r3,[sp,#0x3c]
        0x08000d74:    4621        !F      MOV      r1,r4
        0x08000d76:    4650        PF      MOV      r0,r10
        0x08000d78:    f000f84c    ..L.    BL       _printf_pre_padding ; 0x8000e14
        0x08000d7c:    4406        .D      ADD      r6,r6,r0
        0x08000d7e:    e004        ..      B        0x8000d8a ; _printf_core + 926
        0x08000d80:    e9dd120f    ....    LDRD     r1,r2,[sp,#0x3c]
        0x08000d84:    2030        0       MOVS     r0,#0x30
        0x08000d86:    4790        .G      BLX      r2
        0x08000d88:    1c76        v.      ADDS     r6,r6,#1
        0x08000d8a:    9908        ..      LDR      r1,[sp,#0x20]
        0x08000d8c:    1e48        H.      SUBS     r0,r1,#1
        0x08000d8e:    9008        ..      STR      r0,[sp,#0x20]
        0x08000d90:    2900        .)      CMP      r1,#0
        0x08000d92:    dcf5        ..      BGT      0x8000d80 ; _printf_core + 916
        0x08000d94:    e008        ..      B        0x8000da8 ; _printf_core + 956
        0x08000d96:    980a        ..      LDR      r0,[sp,#0x28]
        0x08000d98:    990a        ..      LDR      r1,[sp,#0x28]
        0x08000d9a:    7800        .x      LDRB     r0,[r0,#0]
        0x08000d9c:    1c49        I.      ADDS     r1,r1,#1
        0x08000d9e:    910a        ..      STR      r1,[sp,#0x28]
        0x08000da0:    e9dd120f    ....    LDRD     r1,r2,[sp,#0x3c]
        0x08000da4:    4790        .G      BLX      r2
        0x08000da6:    1c76        v.      ADDS     r6,r6,#1
        0x08000da8:    f1bb0100    ....    SUBS     r1,r11,#0
        0x08000dac:    f1ab0b01    ....    SUB      r11,r11,#1
        0x08000db0:    dcf1        ..      BGT      0x8000d96 ; _printf_core + 938
        0x08000db2:    4621        !F      MOV      r1,r4
        0x08000db4:    4650        PF      MOV      r0,r10
        0x08000db6:    e9dd230f    ...#    LDRD     r2,r3,[sp,#0x3c]
        0x08000dba:    f000f819    ....    BL       _printf_post_padding ; 0x8000df0
        0x08000dbe:    4406        .D      ADD      r6,r6,r0
        0x08000dc0:    1c6d        m.      ADDS     r5,r5,#1
        0x08000dc2:    e621        !.      B        0x8000a08 ; _printf_core + 28
    $d
        0x08000dc4:    00012809    .(..    DCD    75785
        0x08000dc8:    33323130    0123    DCD    858927408
        0x08000dcc:    37363534    4567    DCD    926299444
        0x08000dd0:    62613938    89ab    DCD    1650538808
        0x08000dd4:    66656463    cdef    DCD    1717920867
        0x08000dd8:    00000000    ....    DCD    0
        0x08000ddc:    33323130    0123    DCD    858927408
        0x08000de0:    37363534    4567    DCD    926299444
        0x08000de4:    42413938    89AB    DCD    1111570744
        0x08000de8:    46454443    CDEF    DCD    1178944579
        0x08000dec:    00000000    ....    DCD    0
    $t
    i._printf_post_padding
    _printf_post_padding
        0x08000df0:    e92d41f0    -..A    PUSH     {r4-r8,lr}
        0x08000df4:    4604        .F      MOV      r4,r0
        0x08000df6:    2500        .%      MOVS     r5,#0
        0x08000df8:    461e        .F      MOV      r6,r3
        0x08000dfa:    4617        .F      MOV      r7,r2
        0x08000dfc:    0488        ..      LSLS     r0,r1,#18
        0x08000dfe:    d404        ..      BMI      0x8000e0a ; _printf_post_padding + 26
        0x08000e00:    e005        ..      B        0x8000e0e ; _printf_post_padding + 30
        0x08000e02:    4639        9F      MOV      r1,r7
        0x08000e04:    2020                MOVS     r0,#0x20
        0x08000e06:    47b0        .G      BLX      r6
        0x08000e08:    1c6d        m.      ADDS     r5,r5,#1
        0x08000e0a:    1e64        d.      SUBS     r4,r4,#1
        0x08000e0c:    d5f9        ..      BPL      0x8000e02 ; _printf_post_padding + 18
        0x08000e0e:    4628        (F      MOV      r0,r5
        0x08000e10:    e8bd81f0    ....    POP      {r4-r8,pc}
    i._printf_pre_padding
    _printf_pre_padding
        0x08000e14:    e92d41f0    -..A    PUSH     {r4-r8,lr}
        0x08000e18:    4604        .F      MOV      r4,r0
        0x08000e1a:    2500        .%      MOVS     r5,#0
        0x08000e1c:    461e        .F      MOV      r6,r3
        0x08000e1e:    4690        .F      MOV      r8,r2
        0x08000e20:    03c8        ..      LSLS     r0,r1,#15
        0x08000e22:    d501        ..      BPL      0x8000e28 ; _printf_pre_padding + 20
        0x08000e24:    2730        0'      MOVS     r7,#0x30
        0x08000e26:    e000        ..      B        0x8000e2a ; _printf_pre_padding + 22
        0x08000e28:    2720         '      MOVS     r7,#0x20
        0x08000e2a:    0488        ..      LSLS     r0,r1,#18
        0x08000e2c:    d504        ..      BPL      0x8000e38 ; _printf_pre_padding + 36
        0x08000e2e:    e005        ..      B        0x8000e3c ; _printf_pre_padding + 40
        0x08000e30:    4641        AF      MOV      r1,r8
        0x08000e32:    4638        8F      MOV      r0,r7
        0x08000e34:    47b0        .G      BLX      r6
        0x08000e36:    1c6d        m.      ADDS     r5,r5,#1
        0x08000e38:    1e64        d.      SUBS     r4,r4,#1
        0x08000e3a:    d5f9        ..      BPL      0x8000e30 ; _printf_pre_padding + 28
        0x08000e3c:    4628        (F      MOV      r0,r5
        0x08000e3e:    e8bd81f0    ....    POP      {r4-r8,pc}
    i._soft_delay_
    _soft_delay_
        0x08000e42:    b508        ..      PUSH     {r3,lr}
        0x08000e44:    2100        .!      MOVS     r1,#0
        0x08000e46:    9100        ..      STR      r1,[sp,#0]
        0x08000e48:    e002        ..      B        0x8000e50 ; _soft_delay_ + 14
        0x08000e4a:    9900        ..      LDR      r1,[sp,#0]
        0x08000e4c:    1c49        I.      ADDS     r1,r1,#1
        0x08000e4e:    9100        ..      STR      r1,[sp,#0]
        0x08000e50:    eb000180    ....    ADD      r1,r0,r0,LSL #2
        0x08000e54:    9a00        ..      LDR      r2,[sp,#0]
        0x08000e56:    ebb20f41    ..A.    CMP      r2,r1,LSL #1
        0x08000e5a:    d3f6        ..      BCC      0x8000e4a ; _soft_delay_ + 8
        0x08000e5c:    bd08        ..      POP      {r3,pc}
    i.bsp_CmpCpuFlash
    bsp_CmpCpuFlash
        0x08000e5e:    b570        p.      PUSH     {r4-r6,lr}
        0x08000e60:    4603        .F      MOV      r3,r0
        0x08000e62:    1898        ..      ADDS     r0,r3,r2
        0x08000e64:    f1b06f01    ...o    CMP      r0,#0x8100000
        0x08000e68:    d901        ..      BLS      0x8000e6e ; bsp_CmpCpuFlash + 16
        0x08000e6a:    2003        .       MOVS     r0,#3
        0x08000e6c:    bd70        p.      POP      {r4-r6,pc}
        0x08000e6e:    b90a        ..      CBNZ     r2,0x8000e74 ; bsp_CmpCpuFlash + 22
        0x08000e70:    2000        .       MOVS     r0,#0
        0x08000e72:    e7fb        ..      B        0x8000e6c ; bsp_CmpCpuFlash + 14
        0x08000e74:    2601        .&      MOVS     r6,#1
        0x08000e76:    2400        .$      MOVS     r4,#0
        0x08000e78:    e00b        ..      B        0x8000e92 ; bsp_CmpCpuFlash + 52
        0x08000e7a:    781d        .x      LDRB     r5,[r3,#0]
        0x08000e7c:    7808        .x      LDRB     r0,[r1,#0]
        0x08000e7e:    42a8        .B      CMP      r0,r5
        0x08000e80:    d004        ..      BEQ      0x8000e8c ; bsp_CmpCpuFlash + 46
        0x08000e82:    2dff        .-      CMP      r5,#0xff
        0x08000e84:    d001        ..      BEQ      0x8000e8a ; bsp_CmpCpuFlash + 44
        0x08000e86:    2002        .       MOVS     r0,#2
        0x08000e88:    e7f0        ..      B        0x8000e6c ; bsp_CmpCpuFlash + 14
        0x08000e8a:    2600        .&      MOVS     r6,#0
        0x08000e8c:    1c5b        [.      ADDS     r3,r3,#1
        0x08000e8e:    1c49        I.      ADDS     r1,r1,#1
        0x08000e90:    1c64        d.      ADDS     r4,r4,#1
        0x08000e92:    4294        .B      CMP      r4,r2
        0x08000e94:    d3f1        ..      BCC      0x8000e7a ; bsp_CmpCpuFlash + 28
        0x08000e96:    2e01        ..      CMP      r6,#1
        0x08000e98:    d101        ..      BNE      0x8000e9e ; bsp_CmpCpuFlash + 64
        0x08000e9a:    2000        .       MOVS     r0,#0
        0x08000e9c:    e7e6        ..      B        0x8000e6c ; bsp_CmpCpuFlash + 14
        0x08000e9e:    2001        .       MOVS     r0,#1
        0x08000ea0:    e7e4        ..      B        0x8000e6c ; bsp_CmpCpuFlash + 14
        0x08000ea2:    0000        ..      MOVS     r0,r0
    i.bsp_GetSector
    bsp_GetSector
        0x08000ea4:    4601        .F      MOV      r1,r0
        0x08000ea6:    2000        .       MOVS     r0,#0
        0x08000ea8:    4a2c        ,J      LDR      r2,[pc,#176] ; [0x8000f5c] = 0x8004000
        0x08000eaa:    4291        .B      CMP      r1,r2
        0x08000eac:    d203        ..      BCS      0x8000eb6 ; bsp_GetSector + 18
        0x08000eae:    f1b16f00    ...o    CMP      r1,#0x8000000
        0x08000eb2:    d300        ..      BCC      0x8000eb6 ; bsp_GetSector + 18
        0x08000eb4:    e050        P.      B        0x8000f58 ; bsp_GetSector + 180
        0x08000eb6:    4a2a        *J      LDR      r2,[pc,#168] ; [0x8000f60] = 0x8008000
        0x08000eb8:    4291        .B      CMP      r1,r2
        0x08000eba:    d204        ..      BCS      0x8000ec6 ; bsp_GetSector + 34
        0x08000ebc:    4a27        'J      LDR      r2,[pc,#156] ; [0x8000f5c] = 0x8004000
        0x08000ebe:    4291        .B      CMP      r1,r2
        0x08000ec0:    d301        ..      BCC      0x8000ec6 ; bsp_GetSector + 34
        0x08000ec2:    2008        .       MOVS     r0,#8
        0x08000ec4:    e048        H.      B        0x8000f58 ; bsp_GetSector + 180
        0x08000ec6:    4a27        'J      LDR      r2,[pc,#156] ; [0x8000f64] = 0x800c000
        0x08000ec8:    4291        .B      CMP      r1,r2
        0x08000eca:    d204        ..      BCS      0x8000ed6 ; bsp_GetSector + 50
        0x08000ecc:    4a24        $J      LDR      r2,[pc,#144] ; [0x8000f60] = 0x8008000
        0x08000ece:    4291        .B      CMP      r1,r2
        0x08000ed0:    d301        ..      BCC      0x8000ed6 ; bsp_GetSector + 50
        0x08000ed2:    2010        .       MOVS     r0,#0x10
        0x08000ed4:    e040        @.      B        0x8000f58 ; bsp_GetSector + 180
        0x08000ed6:    4a24        $J      LDR      r2,[pc,#144] ; [0x8000f68] = 0x8010000
        0x08000ed8:    4291        .B      CMP      r1,r2
        0x08000eda:    d204        ..      BCS      0x8000ee6 ; bsp_GetSector + 66
        0x08000edc:    4a21        !J      LDR      r2,[pc,#132] ; [0x8000f64] = 0x800c000
        0x08000ede:    4291        .B      CMP      r1,r2
        0x08000ee0:    d301        ..      BCC      0x8000ee6 ; bsp_GetSector + 66
        0x08000ee2:    2018        .       MOVS     r0,#0x18
        0x08000ee4:    e038        8.      B        0x8000f58 ; bsp_GetSector + 180
        0x08000ee6:    4a21        !J      LDR      r2,[pc,#132] ; [0x8000f6c] = 0x8020000
        0x08000ee8:    4291        .B      CMP      r1,r2
        0x08000eea:    d204        ..      BCS      0x8000ef6 ; bsp_GetSector + 82
        0x08000eec:    4a1e        .J      LDR      r2,[pc,#120] ; [0x8000f68] = 0x8010000
        0x08000eee:    4291        .B      CMP      r1,r2
        0x08000ef0:    d301        ..      BCC      0x8000ef6 ; bsp_GetSector + 82
        0x08000ef2:    2020                MOVS     r0,#0x20
        0x08000ef4:    e030        0.      B        0x8000f58 ; bsp_GetSector + 180
        0x08000ef6:    4a1e        .J      LDR      r2,[pc,#120] ; [0x8000f70] = 0x8040000
        0x08000ef8:    4291        .B      CMP      r1,r2
        0x08000efa:    d204        ..      BCS      0x8000f06 ; bsp_GetSector + 98
        0x08000efc:    4a1b        .J      LDR      r2,[pc,#108] ; [0x8000f6c] = 0x8020000
        0x08000efe:    4291        .B      CMP      r1,r2
        0x08000f00:    d301        ..      BCC      0x8000f06 ; bsp_GetSector + 98
        0x08000f02:    2028        (       MOVS     r0,#0x28
        0x08000f04:    e028        (.      B        0x8000f58 ; bsp_GetSector + 180
        0x08000f06:    4a1b        .J      LDR      r2,[pc,#108] ; [0x8000f74] = 0x8060000
        0x08000f08:    4291        .B      CMP      r1,r2
        0x08000f0a:    d204        ..      BCS      0x8000f16 ; bsp_GetSector + 114
        0x08000f0c:    4a18        .J      LDR      r2,[pc,#96] ; [0x8000f70] = 0x8040000
        0x08000f0e:    4291        .B      CMP      r1,r2
        0x08000f10:    d301        ..      BCC      0x8000f16 ; bsp_GetSector + 114
        0x08000f12:    2030        0       MOVS     r0,#0x30
        0x08000f14:    e020         .      B        0x8000f58 ; bsp_GetSector + 180
        0x08000f16:    4a18        .J      LDR      r2,[pc,#96] ; [0x8000f78] = 0x8080000
        0x08000f18:    4291        .B      CMP      r1,r2
        0x08000f1a:    d204        ..      BCS      0x8000f26 ; bsp_GetSector + 130
        0x08000f1c:    4a15        .J      LDR      r2,[pc,#84] ; [0x8000f74] = 0x8060000
        0x08000f1e:    4291        .B      CMP      r1,r2
        0x08000f20:    d301        ..      BCC      0x8000f26 ; bsp_GetSector + 130
        0x08000f22:    2038        8       MOVS     r0,#0x38
        0x08000f24:    e018        ..      B        0x8000f58 ; bsp_GetSector + 180
        0x08000f26:    4a15        .J      LDR      r2,[pc,#84] ; [0x8000f7c] = 0x80a0000
        0x08000f28:    4291        .B      CMP      r1,r2
        0x08000f2a:    d204        ..      BCS      0x8000f36 ; bsp_GetSector + 146
        0x08000f2c:    4a12        .J      LDR      r2,[pc,#72] ; [0x8000f78] = 0x8080000
        0x08000f2e:    4291        .B      CMP      r1,r2
        0x08000f30:    d301        ..      BCC      0x8000f36 ; bsp_GetSector + 146
        0x08000f32:    2040        @       MOVS     r0,#0x40
        0x08000f34:    e010        ..      B        0x8000f58 ; bsp_GetSector + 180
        0x08000f36:    4a12        .J      LDR      r2,[pc,#72] ; [0x8000f80] = 0x80c0000
        0x08000f38:    4291        .B      CMP      r1,r2
        0x08000f3a:    d204        ..      BCS      0x8000f46 ; bsp_GetSector + 162
        0x08000f3c:    4a0f        .J      LDR      r2,[pc,#60] ; [0x8000f7c] = 0x80a0000
        0x08000f3e:    4291        .B      CMP      r1,r2
        0x08000f40:    d301        ..      BCC      0x8000f46 ; bsp_GetSector + 162
        0x08000f42:    2048        H       MOVS     r0,#0x48
        0x08000f44:    e008        ..      B        0x8000f58 ; bsp_GetSector + 180
        0x08000f46:    4a0f        .J      LDR      r2,[pc,#60] ; [0x8000f84] = 0x80e0000
        0x08000f48:    4291        .B      CMP      r1,r2
        0x08000f4a:    d204        ..      BCS      0x8000f56 ; bsp_GetSector + 178
        0x08000f4c:    4a0c        .J      LDR      r2,[pc,#48] ; [0x8000f80] = 0x80c0000
        0x08000f4e:    4291        .B      CMP      r1,r2
        0x08000f50:    d301        ..      BCC      0x8000f56 ; bsp_GetSector + 178
        0x08000f52:    2050        P       MOVS     r0,#0x50
        0x08000f54:    e000        ..      B        0x8000f58 ; bsp_GetSector + 180
        0x08000f56:    2058        X       MOVS     r0,#0x58
        0x08000f58:    4770        pG      BX       lr
    $d
        0x08000f5a:    0000        ..      DCW    0
        0x08000f5c:    08004000    .@..    DCD    134234112
        0x08000f60:    08008000    ....    DCD    134250496
        0x08000f64:    0800c000    ....    DCD    134266880
        0x08000f68:    08010000    ....    DCD    134283264
        0x08000f6c:    08020000    ....    DCD    134348800
        0x08000f70:    08040000    ....    DCD    134479872
        0x08000f74:    08060000    ....    DCD    134610944
        0x08000f78:    08080000    ....    DCD    134742016
        0x08000f7c:    080a0000    ....    DCD    134873088
        0x08000f80:    080c0000    ....    DCD    135004160
        0x08000f84:    080e0000    ....    DCD    135135232
    $t
    i.bsp_InitDebug
    bsp_InitDebug
        0x08000f88:    b510        ..      PUSH     {r4,lr}
        0x08000f8a:    4604        .F      MOV      r4,r0
        0x08000f8c:    f000f82c    ..,.    BL       bsp_InitDebug_GPIO ; 0x8000fe8
        0x08000f90:    4620         F      MOV      r0,r4
        0x08000f92:    f000f801    ....    BL       bsp_InitDebug_Config ; 0x8000f98
        0x08000f96:    bd10        ..      POP      {r4,pc}
    i.bsp_InitDebug_Config
    bsp_InitDebug_Config
        0x08000f98:    b510        ..      PUSH     {r4,lr}
        0x08000f9a:    4604        .F      MOV      r4,r0
        0x08000f9c:    f2411004    A...    MOV      r0,#0x1104
        0x08000fa0:    f001fb86    ....    BL       rcu_periph_clock_enable ; 0x80026b0
        0x08000fa4:    480f        .H      LDR      r0,[pc,#60] ; [0x8000fe4] = 0x40011000
        0x08000fa6:    f002fbdb    ....    BL       usart_deinit ; 0x8003760
        0x08000faa:    2100        .!      MOVS     r1,#0
        0x08000fac:    480d        .H      LDR      r0,[pc,#52] ; [0x8000fe4] = 0x40011000
        0x08000fae:    f002fc7a    ..z.    BL       usart_word_length_set ; 0x80038a6
        0x08000fb2:    2100        .!      MOVS     r1,#0
        0x08000fb4:    480b        .H      LDR      r0,[pc,#44] ; [0x8000fe4] = 0x40011000
        0x08000fb6:    f002fc66    ..f.    BL       usart_stop_bit_set ; 0x8003886
        0x08000fba:    2100        .!      MOVS     r1,#0
        0x08000fbc:    4809        .H      LDR      r0,[pc,#36] ; [0x8000fe4] = 0x40011000
        0x08000fbe:    f002fc52    ..R.    BL       usart_parity_config ; 0x8003866
        0x08000fc2:    4621        !F      MOV      r1,r4
        0x08000fc4:    4807        .H      LDR      r0,[pc,#28] ; [0x8000fe4] = 0x40011000
        0x08000fc6:    f002fb53    ..S.    BL       usart_baudrate_set ; 0x8003670
        0x08000fca:    2104        .!      MOVS     r1,#4
        0x08000fcc:    4805        .H      LDR      r0,[pc,#20] ; [0x8000fe4] = 0x40011000
        0x08000fce:    f002fc52    ..R.    BL       usart_receive_config ; 0x8003876
        0x08000fd2:    2108        .!      MOVS     r1,#8
        0x08000fd4:    4803        .H      LDR      r0,[pc,#12] ; [0x8000fe4] = 0x40011000
        0x08000fd6:    f002fc5e    ..^.    BL       usart_transmit_config ; 0x8003896
        0x08000fda:    4802        .H      LDR      r0,[pc,#8] ; [0x8000fe4] = 0x40011000
        0x08000fdc:    f002fc2e    ....    BL       usart_enable ; 0x800383c
        0x08000fe0:    bd10        ..      POP      {r4,pc}
    $d
        0x08000fe2:    0000        ..      DCW    0
        0x08000fe4:    40011000    ...@    DCD    1073811456
    $t
    i.bsp_InitDebug_GPIO
    bsp_InitDebug_GPIO
        0x08000fe8:    b510        ..      PUSH     {r4,lr}
        0x08000fea:    f44f6040    O.@`    MOV      r0,#0xc00
        0x08000fee:    f001fb5f    .._.    BL       rcu_periph_clock_enable ; 0x80026b0
        0x08000ff2:    f44f6040    O.@`    MOV      r0,#0xc00
        0x08000ff6:    f001fb5b    ..[.    BL       rcu_periph_clock_enable ; 0x80026b0
        0x08000ffa:    f44f7200    O..r    MOV      r2,#0x200
        0x08000ffe:    2107        .!      MOVS     r1,#7
        0x08001000:    4812        .H      LDR      r0,[pc,#72] ; [0x800104c] = 0x40020000
        0x08001002:    f000ffa1    ....    BL       gpio_af_set ; 0x8001f48
        0x08001006:    f44f6280    O..b    MOV      r2,#0x400
        0x0800100a:    2107        .!      MOVS     r1,#7
        0x0800100c:    480f        .H      LDR      r0,[pc,#60] ; [0x800104c] = 0x40020000
        0x0800100e:    f000ff9b    ....    BL       gpio_af_set ; 0x8001f48
        0x08001012:    f44f7300    O..s    MOV      r3,#0x200
        0x08001016:    2201        ."      MOVS     r2,#1
        0x08001018:    2102        .!      MOVS     r1,#2
        0x0800101a:    480c        .H      LDR      r0,[pc,#48] ; [0x800104c] = 0x40020000
        0x0800101c:    f000ffd0    ....    BL       gpio_mode_set ; 0x8001fc0
        0x08001020:    f44f7300    O..s    MOV      r3,#0x200
        0x08001024:    2202        ."      MOVS     r2,#2
        0x08001026:    2100        .!      MOVS     r1,#0
        0x08001028:    4808        .H      LDR      r0,[pc,#32] ; [0x800104c] = 0x40020000
        0x0800102a:    f000fff0    ....    BL       gpio_output_options_set ; 0x800200e
        0x0800102e:    f44f6380    O..c    MOV      r3,#0x400
        0x08001032:    2201        ."      MOVS     r2,#1
        0x08001034:    2102        .!      MOVS     r1,#2
        0x08001036:    4805        .H      LDR      r0,[pc,#20] ; [0x800104c] = 0x40020000
        0x08001038:    f000ffc2    ....    BL       gpio_mode_set ; 0x8001fc0
        0x0800103c:    f44f6380    O..c    MOV      r3,#0x400
        0x08001040:    2202        ."      MOVS     r2,#2
        0x08001042:    2100        .!      MOVS     r1,#0
        0x08001044:    4801        .H      LDR      r0,[pc,#4] ; [0x800104c] = 0x40020000
        0x08001046:    f000ffe2    ....    BL       gpio_output_options_set ; 0x800200e
        0x0800104a:    bd10        ..      POP      {r4,pc}
    $d
        0x0800104c:    40020000    ...@    DCD    1073872896
    $t
    i.bsp_InitFwdgt
    bsp_InitFwdgt
        0x08001050:    4770        pG      BX       lr
        0x08001052:    0000        ..      MOVS     r0,r0
    i.bsp_InitLed
    bsp_InitLed
        0x08001054:    b510        ..      PUSH     {r4,lr}
        0x08001056:    f6404001    @..@    MOV      r0,#0xc01
        0x0800105a:    f001fb29    ..).    BL       rcu_periph_clock_enable ; 0x80026b0
        0x0800105e:    f6404001    @..@    MOV      r0,#0xc01
        0x08001062:    f001fb25    ..%.    BL       rcu_periph_clock_enable ; 0x80026b0
        0x08001066:    f6404004    @..@    MOV      r0,#0xc04
        0x0800106a:    f001fb21    ..!.    BL       rcu_periph_clock_enable ; 0x80026b0
        0x0800106e:    f44f7380    O..s    MOV      r3,#0x100
        0x08001072:    2200        ."      MOVS     r2,#0
        0x08001074:    2101        .!      MOVS     r1,#1
        0x08001076:    4819        .H      LDR      r0,[pc,#100] ; [0x80010dc] = 0x40020400
        0x08001078:    f000ffa2    ....    BL       gpio_mode_set ; 0x8001fc0
        0x0800107c:    f44f7380    O..s    MOV      r3,#0x100
        0x08001080:    2202        ."      MOVS     r2,#2
        0x08001082:    2100        .!      MOVS     r1,#0
        0x08001084:    4815        .H      LDR      r0,[pc,#84] ; [0x80010dc] = 0x40020400
        0x08001086:    f000ffc2    ....    BL       gpio_output_options_set ; 0x800200e
        0x0800108a:    f44f7300    O..s    MOV      r3,#0x200
        0x0800108e:    2200        ."      MOVS     r2,#0
        0x08001090:    2101        .!      MOVS     r1,#1
        0x08001092:    4812        .H      LDR      r0,[pc,#72] ; [0x80010dc] = 0x40020400
        0x08001094:    f000ff94    ....    BL       gpio_mode_set ; 0x8001fc0
        0x08001098:    f44f7300    O..s    MOV      r3,#0x200
        0x0800109c:    2202        ."      MOVS     r2,#2
        0x0800109e:    2100        .!      MOVS     r1,#0
        0x080010a0:    480e        .H      LDR      r0,[pc,#56] ; [0x80010dc] = 0x40020400
        0x080010a2:    f000ffb4    ....    BL       gpio_output_options_set ; 0x800200e
        0x080010a6:    2301        .#      MOVS     r3,#1
        0x080010a8:    2200        ."      MOVS     r2,#0
        0x080010aa:    4619        .F      MOV      r1,r3
        0x080010ac:    480c        .H      LDR      r0,[pc,#48] ; [0x80010e0] = 0x40021000
        0x080010ae:    f000ff87    ....    BL       gpio_mode_set ; 0x8001fc0
        0x080010b2:    2301        .#      MOVS     r3,#1
        0x080010b4:    2202        ."      MOVS     r2,#2
        0x080010b6:    2100        .!      MOVS     r1,#0
        0x080010b8:    4809        .H      LDR      r0,[pc,#36] ; [0x80010e0] = 0x40021000
        0x080010ba:    f000ffa8    ....    BL       gpio_output_options_set ; 0x800200e
        0x080010be:    f44f7180    O..q    MOV      r1,#0x100
        0x080010c2:    4806        .H      LDR      r0,[pc,#24] ; [0x80010dc] = 0x40020400
        0x080010c4:    f000ff71    ..q.    BL       gpio_bit_set ; 0x8001faa
        0x080010c8:    f44f7100    O..q    MOV      r1,#0x200
        0x080010cc:    4803        .H      LDR      r0,[pc,#12] ; [0x80010dc] = 0x40020400
        0x080010ce:    f000ff6c    ..l.    BL       gpio_bit_set ; 0x8001faa
        0x080010d2:    2101        .!      MOVS     r1,#1
        0x080010d4:    4802        .H      LDR      r0,[pc,#8] ; [0x80010e0] = 0x40021000
        0x080010d6:    f000ff68    ..h.    BL       gpio_bit_set ; 0x8001faa
        0x080010da:    bd10        ..      POP      {r4,pc}
    $d
        0x080010dc:    40020400    ...@    DCD    1073873920
        0x080010e0:    40021000    ...@    DCD    1073876992
    $t
    i.bsp_InitSFlash
    bsp_InitSFlash
        0x080010e4:    b510        ..      PUSH     {r4,lr}
        0x080010e6:    f6404003    @..@    MOV      r0,#0xc03
        0x080010ea:    f001fae1    ....    BL       rcu_periph_clock_enable ; 0x80026b0
        0x080010ee:    2180        .!      MOVS     r1,#0x80
        0x080010f0:    4808        .H      LDR      r0,[pc,#32] ; [0x8001114] = 0x40020c00
        0x080010f2:    f000ff5a    ..Z.    BL       gpio_bit_set ; 0x8001faa
        0x080010f6:    2380        .#      MOVS     r3,#0x80
        0x080010f8:    2200        ."      MOVS     r2,#0
        0x080010fa:    2101        .!      MOVS     r1,#1
        0x080010fc:    4805        .H      LDR      r0,[pc,#20] ; [0x8001114] = 0x40020c00
        0x080010fe:    f000ff5f    .._.    BL       gpio_mode_set ; 0x8001fc0
        0x08001102:    2380        .#      MOVS     r3,#0x80
        0x08001104:    2202        ."      MOVS     r2,#2
        0x08001106:    2100        .!      MOVS     r1,#0
        0x08001108:    4802        .H      LDR      r0,[pc,#8] ; [0x8001114] = 0x40020c00
        0x0800110a:    f000ff80    ....    BL       gpio_output_options_set ; 0x800200e
        0x0800110e:    f001fe19    ....    BL       sf_ReadInfo ; 0x8002d44
        0x08001112:    bd10        ..      POP      {r4,pc}
    $d
        0x08001114:    40020c00    ...@    DCD    1073875968
    $t
    i.bsp_InitSPIBus
    bsp_InitSPIBus
        0x08001118:    b510        ..      PUSH     {r4,lr}
        0x0800111a:    2000        .       MOVS     r0,#0
        0x0800111c:    4905        .I      LDR      r1,[pc,#20] ; [0x8001134] = 0x20000020
        0x0800111e:    7008        .p      STRB     r0,[r1,#0]
        0x08001120:    f000f878    ..x.    BL       bsp_InitSPIGPIO ; 0x8001214
        0x08001124:    f000f808    ....    BL       bsp_InitSPIDMA ; 0x8001138
        0x08001128:    2103        .!      MOVS     r1,#3
        0x0800112a:    2008        .       MOVS     r0,#8
        0x0800112c:    f000f8ba    ....    BL       bsp_InitSPIParam ; 0x80012a4
        0x08001130:    bd10        ..      POP      {r4,pc}
    $d
        0x08001132:    0000        ..      DCW    0
        0x08001134:    20000020     ..     DCD    536870944
    $t
    i.bsp_InitSPIDMA
    bsp_InitSPIDMA
        0x08001138:    b500        ..      PUSH     {lr}
        0x0800113a:    b093        ..      SUB      sp,sp,#0x4c
        0x0800113c:    f6404016    @..@    MOV      r0,#0xc16
        0x08001140:    f001fab6    ....    BL       rcu_periph_clock_enable ; 0x80026b0
        0x08001144:    2103        .!      MOVS     r1,#3
        0x08001146:    482f        /H      LDR      r0,[pc,#188] ; [0x8001204] = 0x40026400
        0x08001148:    f000fbc5    ....    BL       dma_deinit ; 0x80018d6
        0x0800114c:    482e        .H      LDR      r0,[pc,#184] ; [0x8001208] = 0x4001300c
        0x0800114e:    900a        ..      STR      r0,[sp,#0x28]
        0x08001150:    482e        .H      LDR      r0,[pc,#184] ; [0x800120c] = 0x20000244
        0x08001152:    900c        ..      STR      r0,[sp,#0x30]
        0x08001154:    2040        @       MOVS     r0,#0x40
        0x08001156:    9010        ..      STR      r0,[sp,#0x40]
        0x08001158:    2000        .       MOVS     r0,#0
        0x0800115a:    900e        ..      STR      r0,[sp,#0x38]
        0x0800115c:    9012        ..      STR      r0,[sp,#0x48]
        0x0800115e:    f44f5080    O..P    MOV      r0,#0x1000
        0x08001162:    9011        ..      STR      r0,[sp,#0x44]
        0x08001164:    2001        .       MOVS     r0,#1
        0x08001166:    900b        ..      STR      r0,[sp,#0x2c]
        0x08001168:    2000        .       MOVS     r0,#0
        0x0800116a:    900d        ..      STR      r0,[sp,#0x34]
        0x0800116c:    2001        .       MOVS     r0,#1
        0x0800116e:    900f        ..      STR      r0,[sp,#0x3c]
        0x08001170:    aa0a        ..      ADD      r2,sp,#0x28
        0x08001172:    2103        .!      MOVS     r1,#3
        0x08001174:    4823        #H      LDR      r0,[pc,#140] ; [0x8001204] = 0x40026400
        0x08001176:    f000fd6b    ..k.    BL       dma_single_data_mode_init ; 0x8001c50
        0x0800117a:    2203        ."      MOVS     r2,#3
        0x0800117c:    4611        .F      MOV      r1,r2
        0x0800117e:    4821        !H      LDR      r0,[pc,#132] ; [0x8001204] = 0x40026400
        0x08001180:    f000fb96    ....    BL       dma_channel_subperipheral_select ; 0x80018b0
        0x08001184:    2100        .!      MOVS     r1,#0
        0x08001186:    4820         H      LDR      r0,[pc,#128] ; [0x8001208] = 0x4001300c
        0x08001188:    380c        .8      SUBS     r0,r0,#0xc
        0x0800118a:    f001ff6f    ..o.    BL       spi_dma_enable ; 0x800306c
        0x0800118e:    2102        .!      MOVS     r1,#2
        0x08001190:    481c        .H      LDR      r0,[pc,#112] ; [0x8001204] = 0x40026400
        0x08001192:    f000fba0    ....    BL       dma_deinit ; 0x80018d6
        0x08001196:    481c        .H      LDR      r0,[pc,#112] ; [0x8001208] = 0x4001300c
        0x08001198:    9001        ..      STR      r0,[sp,#4]
        0x0800119a:    481d        .H      LDR      r0,[pc,#116] ; [0x8001210] = 0x20001244
        0x0800119c:    9003        ..      STR      r0,[sp,#0xc]
        0x0800119e:    2000        .       MOVS     r0,#0
        0x080011a0:    9007        ..      STR      r0,[sp,#0x1c]
        0x080011a2:    9005        ..      STR      r0,[sp,#0x14]
        0x080011a4:    f44f3000    O..0    MOV      r0,#0x20000
        0x080011a8:    9009        ..      STR      r0,[sp,#0x24]
        0x080011aa:    1140        @.      ASRS     r0,r0,#5
        0x080011ac:    9008        ..      STR      r0,[sp,#0x20]
        0x080011ae:    2001        .       MOVS     r0,#1
        0x080011b0:    9002        ..      STR      r0,[sp,#8]
        0x080011b2:    2000        .       MOVS     r0,#0
        0x080011b4:    9004        ..      STR      r0,[sp,#0x10]
        0x080011b6:    2001        .       MOVS     r0,#1
        0x080011b8:    9006        ..      STR      r0,[sp,#0x18]
        0x080011ba:    aa01        ..      ADD      r2,sp,#4
        0x080011bc:    2102        .!      MOVS     r1,#2
        0x080011be:    4811        .H      LDR      r0,[pc,#68] ; [0x8001204] = 0x40026400
        0x080011c0:    f000fd46    ..F.    BL       dma_single_data_mode_init ; 0x8001c50
        0x080011c4:    2203        ."      MOVS     r2,#3
        0x080011c6:    2102        .!      MOVS     r1,#2
        0x080011c8:    480e        .H      LDR      r0,[pc,#56] ; [0x8001204] = 0x40026400
        0x080011ca:    f000fb71    ..q.    BL       dma_channel_subperipheral_select ; 0x80018b0
        0x080011ce:    2101        .!      MOVS     r1,#1
        0x080011d0:    480d        .H      LDR      r0,[pc,#52] ; [0x8001208] = 0x4001300c
        0x080011d2:    380c        .8      SUBS     r0,r0,#0xc
        0x080011d4:    f001ff4a    ..J.    BL       spi_dma_enable ; 0x800306c
        0x080011d8:    2200        ."      MOVS     r2,#0
        0x080011da:    2105        .!      MOVS     r1,#5
        0x080011dc:    203b        ;       MOVS     r0,#0x3b
        0x080011de:    f001f91d    ....    BL       nvic_irq_enable ; 0x800241c
        0x080011e2:    2210        ."      MOVS     r2,#0x10
        0x080011e4:    2103        .!      MOVS     r1,#3
        0x080011e6:    4807        .H      LDR      r0,[pc,#28] ; [0x8001204] = 0x40026400
        0x080011e8:    f000fbc8    ....    BL       dma_interrupt_enable ; 0x800197c
        0x080011ec:    2200        ."      MOVS     r2,#0
        0x080011ee:    2105        .!      MOVS     r1,#5
        0x080011f0:    203a        :       MOVS     r0,#0x3a
        0x080011f2:    f001f913    ....    BL       nvic_irq_enable ; 0x800241c
        0x080011f6:    2210        ."      MOVS     r2,#0x10
        0x080011f8:    2102        .!      MOVS     r1,#2
        0x080011fa:    4802        .H      LDR      r0,[pc,#8] ; [0x8001204] = 0x40026400
        0x080011fc:    f000fbbe    ....    BL       dma_interrupt_enable ; 0x800197c
        0x08001200:    b013        ..      ADD      sp,sp,#0x4c
        0x08001202:    bd00        ..      POP      {pc}
    $d
        0x08001204:    40026400    .d.@    DCD    1073898496
        0x08001208:    4001300c    .0.@    DCD    1073819660
        0x0800120c:    20000244    D..     DCD    536871492
        0x08001210:    20001244    D..     DCD    536875588
    $t
    i.bsp_InitSPIGPIO
    bsp_InitSPIGPIO
        0x08001214:    b510        ..      PUSH     {r4,lr}
        0x08001216:    f6404001    @..@    MOV      r0,#0xc01
        0x0800121a:    f001fa49    ..I.    BL       rcu_periph_clock_enable ; 0x80026b0
        0x0800121e:    f6404001    @..@    MOV      r0,#0xc01
        0x08001222:    f001fa45    ..E.    BL       rcu_periph_clock_enable ; 0x80026b0
        0x08001226:    f6404001    @..@    MOV      r0,#0xc01
        0x0800122a:    f001fa41    ..A.    BL       rcu_periph_clock_enable ; 0x80026b0
        0x0800122e:    f241100c    A...    MOV      r0,#0x110c
        0x08001232:    f001fa3d    ..=.    BL       rcu_periph_clock_enable ; 0x80026b0
        0x08001236:    2208        ."      MOVS     r2,#8
        0x08001238:    2105        .!      MOVS     r1,#5
        0x0800123a:    4819        .H      LDR      r0,[pc,#100] ; [0x80012a0] = 0x40020400
        0x0800123c:    f000fe84    ....    BL       gpio_af_set ; 0x8001f48
        0x08001240:    2308        .#      MOVS     r3,#8
        0x08001242:    2200        ."      MOVS     r2,#0
        0x08001244:    2102        .!      MOVS     r1,#2
        0x08001246:    4816        .H      LDR      r0,[pc,#88] ; [0x80012a0] = 0x40020400
        0x08001248:    f000feba    ....    BL       gpio_mode_set ; 0x8001fc0
        0x0800124c:    2308        .#      MOVS     r3,#8
        0x0800124e:    2202        ."      MOVS     r2,#2
        0x08001250:    2100        .!      MOVS     r1,#0
        0x08001252:    4813        .H      LDR      r0,[pc,#76] ; [0x80012a0] = 0x40020400
        0x08001254:    f000fedb    ....    BL       gpio_output_options_set ; 0x800200e
        0x08001258:    2210        ."      MOVS     r2,#0x10
        0x0800125a:    2105        .!      MOVS     r1,#5
        0x0800125c:    4810        .H      LDR      r0,[pc,#64] ; [0x80012a0] = 0x40020400
        0x0800125e:    f000fe73    ..s.    BL       gpio_af_set ; 0x8001f48
        0x08001262:    2310        .#      MOVS     r3,#0x10
        0x08001264:    2200        ."      MOVS     r2,#0
        0x08001266:    2102        .!      MOVS     r1,#2
        0x08001268:    480d        .H      LDR      r0,[pc,#52] ; [0x80012a0] = 0x40020400
        0x0800126a:    f000fea9    ....    BL       gpio_mode_set ; 0x8001fc0
        0x0800126e:    2310        .#      MOVS     r3,#0x10
        0x08001270:    2202        ."      MOVS     r2,#2
        0x08001272:    2100        .!      MOVS     r1,#0
        0x08001274:    480a        .H      LDR      r0,[pc,#40] ; [0x80012a0] = 0x40020400
        0x08001276:    f000feca    ....    BL       gpio_output_options_set ; 0x800200e
        0x0800127a:    2220         "      MOVS     r2,#0x20
        0x0800127c:    2105        .!      MOVS     r1,#5
        0x0800127e:    4808        .H      LDR      r0,[pc,#32] ; [0x80012a0] = 0x40020400
        0x08001280:    f000fe62    ..b.    BL       gpio_af_set ; 0x8001f48
        0x08001284:    2320         #      MOVS     r3,#0x20
        0x08001286:    2200        ."      MOVS     r2,#0
        0x08001288:    2102        .!      MOVS     r1,#2
        0x0800128a:    4805        .H      LDR      r0,[pc,#20] ; [0x80012a0] = 0x40020400
        0x0800128c:    f000fe98    ....    BL       gpio_mode_set ; 0x8001fc0
        0x08001290:    2320         #      MOVS     r3,#0x20
        0x08001292:    2202        ."      MOVS     r2,#2
        0x08001294:    2100        .!      MOVS     r1,#0
        0x08001296:    4802        .H      LDR      r0,[pc,#8] ; [0x80012a0] = 0x40020400
        0x08001298:    f000feb9    ....    BL       gpio_output_options_set ; 0x800200e
        0x0800129c:    bd10        ..      POP      {r4,pc}
    $d
        0x0800129e:    0000        ..      DCW    0
        0x080012a0:    40020400    ...@    DCD    1073873920
    $t
    i.bsp_InitSPIParam
    bsp_InitSPIParam
        0x080012a4:    b530        0.      PUSH     {r4,r5,lr}
        0x080012a6:    b087        ..      SUB      sp,sp,#0x1c
        0x080012a8:    4605        .F      MOV      r5,r0
        0x080012aa:    460c        .F      MOV      r4,r1
        0x080012ac:    4812        .H      LDR      r0,[pc,#72] ; [0x80012f8] = 0x20000014
        0x080012ae:    6800        .h      LDR      r0,[r0,#0]
        0x080012b0:    42a8        .B      CMP      r0,r5
        0x080012b2:    d105        ..      BNE      0x80012c0 ; bsp_InitSPIParam + 28
        0x080012b4:    4811        .H      LDR      r0,[pc,#68] ; [0x80012fc] = 0x20000018
        0x080012b6:    6800        .h      LDR      r0,[r0,#0]
        0x080012b8:    42a0        .B      CMP      r0,r4
        0x080012ba:    d101        ..      BNE      0x80012c0 ; bsp_InitSPIParam + 28
        0x080012bc:    b007        ..      ADD      sp,sp,#0x1c
        0x080012be:    bd30        0.      POP      {r4,r5,pc}
        0x080012c0:    480d        .H      LDR      r0,[pc,#52] ; [0x80012f8] = 0x20000014
        0x080012c2:    6005        .`      STR      r5,[r0,#0]
        0x080012c4:    480d        .H      LDR      r0,[pc,#52] ; [0x80012fc] = 0x20000018
        0x080012c6:    6004        .`      STR      r4,[r0,#0]
        0x080012c8:    2000        .       MOVS     r0,#0
        0x080012ca:    9001        ..      STR      r0,[sp,#4]
        0x080012cc:    f44f7082    O..p    MOV      r0,#0x104
        0x080012d0:    9000        ..      STR      r0,[sp,#0]
        0x080012d2:    2000        .       MOVS     r0,#0
        0x080012d4:    9002        ..      STR      r0,[sp,#8]
        0x080012d6:    9405        ..      STR      r4,[sp,#0x14]
        0x080012d8:    f44f7000    O..p    MOV      r0,#0x200
        0x080012dc:    9003        ..      STR      r0,[sp,#0xc]
        0x080012de:    9506        ..      STR      r5,[sp,#0x18]
        0x080012e0:    2000        .       MOVS     r0,#0
        0x080012e2:    9004        ..      STR      r0,[sp,#0x10]
        0x080012e4:    4669        iF      MOV      r1,sp
        0x080012e6:    4806        .H      LDR      r0,[pc,#24] ; [0x8001300] = 0x40013000
        0x080012e8:    f001fed4    ....    BL       spi_init ; 0x8003094
        0x080012ec:    4804        .H      LDR      r0,[pc,#16] ; [0x8001300] = 0x40013000
        0x080012ee:    f001fec8    ....    BL       spi_enable ; 0x8003082
        0x080012f2:    bf00        ..      NOP      
        0x080012f4:    e7e2        ..      B        0x80012bc ; bsp_InitSPIParam + 24
    $d
        0x080012f6:    0000        ..      DCW    0
        0x080012f8:    20000014    ...     DCD    536870932
        0x080012fc:    20000018    ...     DCD    536870936
        0x08001300:    40013000    .0.@    DCD    1073819648
    $t
    i.bsp_InitTimers
    bsp_InitTimers
        0x08001304:    e92d5fff    -.._    PUSH     {r0-r12,lr}
        0x08001308:    4604        .F      MOV      r4,r0
        0x0800130a:    460d        .F      MOV      r5,r1
        0x0800130c:    4691        .F      MOV      r9,r2
        0x0800130e:    469a        .F      MOV      r10,r3
        0x08001310:    2000        .       MOVS     r0,#0
        0x08001312:    9000        ..      STR      r0,[sp,#0]
        0x08001314:    9001        ..      STR      r0,[sp,#4]
        0x08001316:    9002        ..      STR      r0,[sp,#8]
        0x08001318:    9003        ..      STR      r0,[sp,#0xc]
        0x0800131a:    4620         F      MOV      r0,r4
        0x0800131c:    f000f8f8    ....    BL       bsp_RCC_TIM_Enable ; 0x8001510
        0x08001320:    f06f7080    o..p    MVN      r0,#0x1000000
        0x08001324:    f001f9fa    ....    BL       rcu_timer_clock_prescaler_config ; 0x800271c
        0x08001328:    485a        ZH      LDR      r0,[pc,#360] ; [0x8001494] = 0x40010000
        0x0800132a:    4284        .B      CMP      r4,r0
        0x0800132c:    d00b        ..      BEQ      0x8001346 ; bsp_InitTimers + 66
        0x0800132e:    485a        ZH      LDR      r0,[pc,#360] ; [0x8001498] = 0x40010400
        0x08001330:    4284        .B      CMP      r4,r0
        0x08001332:    d008        ..      BEQ      0x8001346 ; bsp_InitTimers + 66
        0x08001334:    4859        YH      LDR      r0,[pc,#356] ; [0x800149c] = 0x40014000
        0x08001336:    4284        .B      CMP      r4,r0
        0x08001338:    d005        ..      BEQ      0x8001346 ; bsp_InitTimers + 66
        0x0800133a:    4859        YH      LDR      r0,[pc,#356] ; [0x80014a0] = 0x40014400
        0x0800133c:    4284        .B      CMP      r4,r0
        0x0800133e:    d002        ..      BEQ      0x8001346 ; bsp_InitTimers + 66
        0x08001340:    4858        XH      LDR      r0,[pc,#352] ; [0x80014a4] = 0x40014800
        0x08001342:    4284        .B      CMP      r4,r0
        0x08001344:    d104        ..      BNE      0x8001350 ; bsp_InitTimers + 76
        0x08001346:    2003        .       MOVS     r0,#3
        0x08001348:    f001f90c    ....    BL       rcu_clock_freq_get ; 0x8002564
        0x0800134c:    0086        ..      LSLS     r6,r0,#2
        0x0800134e:    e003        ..      B        0x8001358 ; bsp_InitTimers + 84
        0x08001350:    2002        .       MOVS     r0,#2
        0x08001352:    f001f907    ....    BL       rcu_clock_freq_get ; 0x8002564
        0x08001356:    0086        ..      LSLS     r6,r0,#2
        0x08001358:    2d64        d-      CMP      r5,#0x64
        0x0800135a:    d20a        ..      BCS      0x8001372 ; bsp_InitTimers + 110
        0x0800135c:    f242780f    B..x    MOV      r8,#0x270f
        0x08001360:    f2427010    B..p    MOV      r0,#0x2710
        0x08001364:    fbb6f0f0    ....    UDIV     r0,r6,r0
        0x08001368:    fbb0f0f5    ....    UDIV     r0,r0,r5
        0x0800136c:    1e40        @.      SUBS     r0,r0,#1
        0x0800136e:    b287        ..      UXTH     r7,r0
        0x08001370:    e013        ..      B        0x800139a ; bsp_InitTimers + 150
        0x08001372:    f64030b8    @..0    MOV      r0,#0xbb8
        0x08001376:    4285        .B      CMP      r5,r0
        0x08001378:    d209        ..      BCS      0x800138e ; bsp_InitTimers + 138
        0x0800137a:    f04f0863    O.c.    MOV      r8,#0x63
        0x0800137e:    2064        d       MOVS     r0,#0x64
        0x08001380:    fbb6f0f0    ....    UDIV     r0,r6,r0
        0x08001384:    fbb0f0f5    ....    UDIV     r0,r0,r5
        0x08001388:    1e40        @.      SUBS     r0,r0,#1
        0x0800138a:    b287        ..      UXTH     r7,r0
        0x0800138c:    e005        ..      B        0x800139a ; bsp_InitTimers + 150
        0x0800138e:    f04f0800    O...    MOV      r8,#0
        0x08001392:    fbb6f0f5    ....    UDIV     r0,r6,r5
        0x08001396:    1e40        @.      SUBS     r0,r0,#1
        0x08001398:    b287        ..      UXTH     r7,r0
        0x0800139a:    4620         F      MOV      r0,r4
        0x0800139c:    f001ff64    ..d.    BL       timer_deinit ; 0x8003268
        0x080013a0:    f8ad8000    ....    STRH     r8,[sp,#0]
        0x080013a4:    2000        .       MOVS     r0,#0
        0x080013a6:    f8ad0002    ....    STRH     r0,[sp,#2]
        0x080013aa:    f8ad0004    ....    STRH     r0,[sp,#4]
        0x080013ae:    9702        ..      STR      r7,[sp,#8]
        0x080013b0:    f8ad0006    ....    STRH     r0,[sp,#6]
        0x080013b4:    f88d000c    ....    STRB     r0,[sp,#0xc]
        0x080013b8:    4669        iF      MOV      r1,sp
        0x080013ba:    4620         F      MOV      r0,r4
        0x080013bc:    f002f81c    ....    BL       timer_init ; 0x80033f8
        0x080013c0:    2101        .!      MOVS     r1,#1
        0x080013c2:    4620         F      MOV      r0,r4
        0x080013c4:    f002f864    ..d.    BL       timer_interrupt_enable ; 0x8003490
        0x080013c8:    f04f0b00    O...    MOV      r11,#0
        0x080013cc:    4831        1H      LDR      r0,[pc,#196] ; [0x8001494] = 0x40010000
        0x080013ce:    4284        .B      CMP      r4,r0
        0x080013d0:    d102        ..      BNE      0x80013d8 ; bsp_InitTimers + 212
        0x080013d2:    f04f0b19    O...    MOV      r11,#0x19
        0x080013d6:    e051        Q.      B        0x800147c ; bsp_InitTimers + 376
        0x080013d8:    f1b44f80    ...O    CMP      r4,#0x40000000
        0x080013dc:    d102        ..      BNE      0x80013e4 ; bsp_InitTimers + 224
        0x080013de:    f04f0b1c    O...    MOV      r11,#0x1c
        0x080013e2:    e04b        K.      B        0x800147c ; bsp_InitTimers + 376
        0x080013e4:    4830        0H      LDR      r0,[pc,#192] ; [0x80014a8] = 0x40000400
        0x080013e6:    4284        .B      CMP      r4,r0
        0x080013e8:    d102        ..      BNE      0x80013f0 ; bsp_InitTimers + 236
        0x080013ea:    f04f0b1d    O...    MOV      r11,#0x1d
        0x080013ee:    e045        E.      B        0x800147c ; bsp_InitTimers + 376
        0x080013f0:    482e        .H      LDR      r0,[pc,#184] ; [0x80014ac] = 0x40000800
        0x080013f2:    4284        .B      CMP      r4,r0
        0x080013f4:    d102        ..      BNE      0x80013fc ; bsp_InitTimers + 248
        0x080013f6:    f04f0b1e    O...    MOV      r11,#0x1e
        0x080013fa:    e03f        ?.      B        0x800147c ; bsp_InitTimers + 376
        0x080013fc:    482c        ,H      LDR      r0,[pc,#176] ; [0x80014b0] = 0x40000c00
        0x080013fe:    4284        .B      CMP      r4,r0
        0x08001400:    d102        ..      BNE      0x8001408 ; bsp_InitTimers + 260
        0x08001402:    f04f0b32    O.2.    MOV      r11,#0x32
        0x08001406:    e039        9.      B        0x800147c ; bsp_InitTimers + 376
        0x08001408:    482a        *H      LDR      r0,[pc,#168] ; [0x80014b4] = 0x40001000
        0x0800140a:    4284        .B      CMP      r4,r0
        0x0800140c:    d102        ..      BNE      0x8001414 ; bsp_InitTimers + 272
        0x0800140e:    f04f0b36    O.6.    MOV      r11,#0x36
        0x08001412:    e033        3.      B        0x800147c ; bsp_InitTimers + 376
        0x08001414:    4828        (H      LDR      r0,[pc,#160] ; [0x80014b8] = 0x40001400
        0x08001416:    4284        .B      CMP      r4,r0
        0x08001418:    d102        ..      BNE      0x8001420 ; bsp_InitTimers + 284
        0x0800141a:    f04f0b37    O.7.    MOV      r11,#0x37
        0x0800141e:    e02d        -.      B        0x800147c ; bsp_InitTimers + 376
        0x08001420:    481d        .H      LDR      r0,[pc,#116] ; [0x8001498] = 0x40010400
        0x08001422:    4284        .B      CMP      r4,r0
        0x08001424:    d102        ..      BNE      0x800142c ; bsp_InitTimers + 296
        0x08001426:    f04f0b2c    O.,.    MOV      r11,#0x2c
        0x0800142a:    e027        '.      B        0x800147c ; bsp_InitTimers + 376
        0x0800142c:    481b        .H      LDR      r0,[pc,#108] ; [0x800149c] = 0x40014000
        0x0800142e:    4284        .B      CMP      r4,r0
        0x08001430:    d102        ..      BNE      0x8001438 ; bsp_InitTimers + 308
        0x08001432:    f04f0b18    O...    MOV      r11,#0x18
        0x08001436:    e021        !.      B        0x800147c ; bsp_InitTimers + 376
        0x08001438:    4819        .H      LDR      r0,[pc,#100] ; [0x80014a0] = 0x40014400
        0x0800143a:    4284        .B      CMP      r4,r0
        0x0800143c:    d102        ..      BNE      0x8001444 ; bsp_InitTimers + 320
        0x0800143e:    f04f0b19    O...    MOV      r11,#0x19
        0x08001442:    e01b        ..      B        0x800147c ; bsp_InitTimers + 376
        0x08001444:    4817        .H      LDR      r0,[pc,#92] ; [0x80014a4] = 0x40014800
        0x08001446:    4284        .B      CMP      r4,r0
        0x08001448:    d102        ..      BNE      0x8001450 ; bsp_InitTimers + 332
        0x0800144a:    f04f0b1a    O...    MOV      r11,#0x1a
        0x0800144e:    e015        ..      B        0x800147c ; bsp_InitTimers + 376
        0x08001450:    481a        .H      LDR      r0,[pc,#104] ; [0x80014bc] = 0x40001800
        0x08001452:    4284        .B      CMP      r4,r0
        0x08001454:    d102        ..      BNE      0x800145c ; bsp_InitTimers + 344
        0x08001456:    f04f0b2b    O.+.    MOV      r11,#0x2b
        0x0800145a:    e00f        ..      B        0x800147c ; bsp_InitTimers + 376
        0x0800145c:    4818        .H      LDR      r0,[pc,#96] ; [0x80014c0] = 0x40001c00
        0x0800145e:    4284        .B      CMP      r4,r0
        0x08001460:    d102        ..      BNE      0x8001468 ; bsp_InitTimers + 356
        0x08001462:    f04f0b2c    O.,.    MOV      r11,#0x2c
        0x08001466:    e009        ..      B        0x800147c ; bsp_InitTimers + 376
        0x08001468:    4816        .H      LDR      r0,[pc,#88] ; [0x80014c4] = 0x40002000
        0x0800146a:    4284        .B      CMP      r4,r0
        0x0800146c:    d102        ..      BNE      0x8001474 ; bsp_InitTimers + 368
        0x0800146e:    f04f0b2d    O.-.    MOV      r11,#0x2d
        0x08001472:    e003        ..      B        0x800147c ; bsp_InitTimers + 376
        0x08001474:    218d        .!      MOVS     r1,#0x8d
        0x08001476:    a014        ..      ADR      r0,{pc}+0x52 ; 0x80014c8
        0x08001478:    f7fff82a    ..*.    BL       Error_Handler ; 0x80004d0
        0x0800147c:    4652        RF      MOV      r2,r10
        0x0800147e:    4649        IF      MOV      r1,r9
        0x08001480:    fa4ff08b    O...    SXTB     r0,r11
        0x08001484:    f000ffca    ....    BL       nvic_irq_enable ; 0x800241c
        0x08001488:    4620         F      MOV      r0,r4
        0x0800148a:    f001ffaf    ....    BL       timer_enable ; 0x80033ec
        0x0800148e:    e8bd9fff    ....    POP      {r0-r12,pc}
    $d
        0x08001492:    0000        ..      DCW    0
        0x08001494:    40010000    ...@    DCD    1073807360
        0x08001498:    40010400    ...@    DCD    1073808384
        0x0800149c:    40014000    .@.@    DCD    1073823744
        0x080014a0:    40014400    .D.@    DCD    1073824768
        0x080014a4:    40014800    .H.@    DCD    1073825792
        0x080014a8:    40000400    ...@    DCD    1073742848
        0x080014ac:    40000800    ...@    DCD    1073743872
        0x080014b0:    40000c00    ...@    DCD    1073744896
        0x080014b4:    40001000    ...@    DCD    1073745920
        0x080014b8:    40001400    ...@    DCD    1073746944
        0x080014bc:    40001800    ...@    DCD    1073747968
        0x080014c0:    40001c00    ...@    DCD    1073748992
        0x080014c4:    40002000    . .@    DCD    1073750016
        0x080014c8:    2e5c2e2e    ..\.    DCD    777793070
        0x080014cc:    61485c2e    .\Ha    DCD    1632132142
        0x080014d0:    61776472    rdwa    DCD    1635214450
        0x080014d4:    735c6572    re\s    DCD    1935435122
        0x080014d8:    625c6372    rc\b    DCD    1650221938
        0x080014dc:    745f7073    sp_t    DCD    1952411763
        0x080014e0:    72656d69    imer    DCD    1919249769
        0x080014e4:    00632e73    s.c.    DCD    6499955
    $t
    i.bsp_Init_DWT
    bsp_Init_DWT
        0x080014e8:    4807        .H      LDR      r0,[pc,#28] ; [0x8001508] = 0xe000edfc
        0x080014ea:    6800        .h      LDR      r0,[r0,#0]
        0x080014ec:    f0407080    @..p    ORR      r0,r0,#0x1000000
        0x080014f0:    4905        .I      LDR      r1,[pc,#20] ; [0x8001508] = 0xe000edfc
        0x080014f2:    6008        .`      STR      r0,[r1,#0]
        0x080014f4:    2000        .       MOVS     r0,#0
        0x080014f6:    4905        .I      LDR      r1,[pc,#20] ; [0x800150c] = 0xe0001000
        0x080014f8:    6048        H`      STR      r0,[r1,#4]
        0x080014fa:    4608        .F      MOV      r0,r1
        0x080014fc:    6800        .h      LDR      r0,[r0,#0]
        0x080014fe:    f0400001    @...    ORR      r0,r0,#1
        0x08001502:    6008        .`      STR      r0,[r1,#0]
        0x08001504:    4770        pG      BX       lr
    $d
        0x08001506:    0000        ..      DCW    0
        0x08001508:    e000edfc    ....    DCD    3758157308
        0x0800150c:    e0001000    ....    DCD    3758100480
    $t
    i.bsp_RCC_TIM_Enable
    bsp_RCC_TIM_Enable
        0x08001510:    b510        ..      PUSH     {r4,lr}
        0x08001512:    4604        .F      MOV      r4,r0
        0x08001514:    483a        :H      LDR      r0,[pc,#232] ; [0x8001600] = 0x40010000
        0x08001516:    4284        .B      CMP      r4,r0
        0x08001518:    d104        ..      BNE      0x8001524 ; bsp_RCC_TIM_Enable + 20
        0x0800151a:    f44f5088    O..P    MOV      r0,#0x1100
        0x0800151e:    f001f8c7    ....    BL       rcu_periph_clock_enable ; 0x80026b0
        0x08001522:    e06b        k.      B        0x80015fc ; bsp_RCC_TIM_Enable + 236
        0x08001524:    f1b44f80    ...O    CMP      r4,#0x40000000
        0x08001528:    d104        ..      BNE      0x8001534 ; bsp_RCC_TIM_Enable + 36
        0x0800152a:    f44f5080    O..P    MOV      r0,#0x1000
        0x0800152e:    f001f8bf    ....    BL       rcu_periph_clock_enable ; 0x80026b0
        0x08001532:    e063        c.      B        0x80015fc ; bsp_RCC_TIM_Enable + 236
        0x08001534:    4833        3H      LDR      r0,[pc,#204] ; [0x8001604] = 0x40000400
        0x08001536:    4284        .B      CMP      r4,r0
        0x08001538:    d104        ..      BNE      0x8001544 ; bsp_RCC_TIM_Enable + 52
        0x0800153a:    f2410001    A...    MOV      r0,#0x1001
        0x0800153e:    f001f8b7    ....    BL       rcu_periph_clock_enable ; 0x80026b0
        0x08001542:    e05b        [.      B        0x80015fc ; bsp_RCC_TIM_Enable + 236
        0x08001544:    4830        0H      LDR      r0,[pc,#192] ; [0x8001608] = 0x40000800
        0x08001546:    4284        .B      CMP      r4,r0
        0x08001548:    d104        ..      BNE      0x8001554 ; bsp_RCC_TIM_Enable + 68
        0x0800154a:    f2410002    A...    MOV      r0,#0x1002
        0x0800154e:    f001f8af    ....    BL       rcu_periph_clock_enable ; 0x80026b0
        0x08001552:    e053        S.      B        0x80015fc ; bsp_RCC_TIM_Enable + 236
        0x08001554:    482d        -H      LDR      r0,[pc,#180] ; [0x800160c] = 0x40000c00
        0x08001556:    4284        .B      CMP      r4,r0
        0x08001558:    d104        ..      BNE      0x8001564 ; bsp_RCC_TIM_Enable + 84
        0x0800155a:    f2410003    A...    MOV      r0,#0x1003
        0x0800155e:    f001f8a7    ....    BL       rcu_periph_clock_enable ; 0x80026b0
        0x08001562:    e04b        K.      B        0x80015fc ; bsp_RCC_TIM_Enable + 236
        0x08001564:    482a        *H      LDR      r0,[pc,#168] ; [0x8001610] = 0x40001000
        0x08001566:    4284        .B      CMP      r4,r0
        0x08001568:    d104        ..      BNE      0x8001574 ; bsp_RCC_TIM_Enable + 100
        0x0800156a:    f2410004    A...    MOV      r0,#0x1004
        0x0800156e:    f001f89f    ....    BL       rcu_periph_clock_enable ; 0x80026b0
        0x08001572:    e043        C.      B        0x80015fc ; bsp_RCC_TIM_Enable + 236
        0x08001574:    4827        'H      LDR      r0,[pc,#156] ; [0x8001614] = 0x40001400
        0x08001576:    4284        .B      CMP      r4,r0
        0x08001578:    d104        ..      BNE      0x8001584 ; bsp_RCC_TIM_Enable + 116
        0x0800157a:    f2410005    A...    MOV      r0,#0x1005
        0x0800157e:    f001f897    ....    BL       rcu_periph_clock_enable ; 0x80026b0
        0x08001582:    e03b        ;.      B        0x80015fc ; bsp_RCC_TIM_Enable + 236
        0x08001584:    4824        $H      LDR      r0,[pc,#144] ; [0x8001618] = 0x40010400
        0x08001586:    4284        .B      CMP      r4,r0
        0x08001588:    d104        ..      BNE      0x8001594 ; bsp_RCC_TIM_Enable + 132
        0x0800158a:    f2411001    A...    MOV      r0,#0x1101
        0x0800158e:    f001f88f    ....    BL       rcu_periph_clock_enable ; 0x80026b0
        0x08001592:    e033        3.      B        0x80015fc ; bsp_RCC_TIM_Enable + 236
        0x08001594:    4821        !H      LDR      r0,[pc,#132] ; [0x800161c] = 0x40014000
        0x08001596:    4284        .B      CMP      r4,r0
        0x08001598:    d104        ..      BNE      0x80015a4 ; bsp_RCC_TIM_Enable + 148
        0x0800159a:    f2411010    A...    MOV      r0,#0x1110
        0x0800159e:    f001f887    ....    BL       rcu_periph_clock_enable ; 0x80026b0
        0x080015a2:    e02b        +.      B        0x80015fc ; bsp_RCC_TIM_Enable + 236
        0x080015a4:    481e        .H      LDR      r0,[pc,#120] ; [0x8001620] = 0x40014400
        0x080015a6:    4284        .B      CMP      r4,r0
        0x080015a8:    d104        ..      BNE      0x80015b4 ; bsp_RCC_TIM_Enable + 164
        0x080015aa:    f2411011    A...    MOV      r0,#0x1111
        0x080015ae:    f001f87f    ....    BL       rcu_periph_clock_enable ; 0x80026b0
        0x080015b2:    e023        #.      B        0x80015fc ; bsp_RCC_TIM_Enable + 236
        0x080015b4:    481b        .H      LDR      r0,[pc,#108] ; [0x8001624] = 0x40014800
        0x080015b6:    4284        .B      CMP      r4,r0
        0x080015b8:    d104        ..      BNE      0x80015c4 ; bsp_RCC_TIM_Enable + 180
        0x080015ba:    f2411012    A...    MOV      r0,#0x1112
        0x080015be:    f001f877    ..w.    BL       rcu_periph_clock_enable ; 0x80026b0
        0x080015c2:    e01b        ..      B        0x80015fc ; bsp_RCC_TIM_Enable + 236
        0x080015c4:    4818        .H      LDR      r0,[pc,#96] ; [0x8001628] = 0x40001800
        0x080015c6:    4284        .B      CMP      r4,r0
        0x080015c8:    d104        ..      BNE      0x80015d4 ; bsp_RCC_TIM_Enable + 196
        0x080015ca:    f2410006    A...    MOV      r0,#0x1006
        0x080015ce:    f001f86f    ..o.    BL       rcu_periph_clock_enable ; 0x80026b0
        0x080015d2:    e013        ..      B        0x80015fc ; bsp_RCC_TIM_Enable + 236
        0x080015d4:    4815        .H      LDR      r0,[pc,#84] ; [0x800162c] = 0x40001c00
        0x080015d6:    4284        .B      CMP      r4,r0
        0x080015d8:    d104        ..      BNE      0x80015e4 ; bsp_RCC_TIM_Enable + 212
        0x080015da:    f2410007    A...    MOV      r0,#0x1007
        0x080015de:    f001f867    ..g.    BL       rcu_periph_clock_enable ; 0x80026b0
        0x080015e2:    e00b        ..      B        0x80015fc ; bsp_RCC_TIM_Enable + 236
        0x080015e4:    4812        .H      LDR      r0,[pc,#72] ; [0x8001630] = 0x40002000
        0x080015e6:    4284        .B      CMP      r4,r0
        0x080015e8:    d104        ..      BNE      0x80015f4 ; bsp_RCC_TIM_Enable + 228
        0x080015ea:    f2410008    A...    MOV      r0,#0x1008
        0x080015ee:    f001f85f    .._.    BL       rcu_periph_clock_enable ; 0x80026b0
        0x080015f2:    e003        ..      B        0x80015fc ; bsp_RCC_TIM_Enable + 236
        0x080015f4:    21af        .!      MOVS     r1,#0xaf
        0x080015f6:    a00f        ..      ADR      r0,{pc}+0x3e ; 0x8001634
        0x080015f8:    f7feff6a    ..j.    BL       Error_Handler ; 0x80004d0
        0x080015fc:    bd10        ..      POP      {r4,pc}
    $d
        0x080015fe:    0000        ..      DCW    0
        0x08001600:    40010000    ...@    DCD    1073807360
        0x08001604:    40000400    ...@    DCD    1073742848
        0x08001608:    40000800    ...@    DCD    1073743872
        0x0800160c:    40000c00    ...@    DCD    1073744896
        0x08001610:    40001000    ...@    DCD    1073745920
        0x08001614:    40001400    ...@    DCD    1073746944
        0x08001618:    40010400    ...@    DCD    1073808384
        0x0800161c:    40014000    .@.@    DCD    1073823744
        0x08001620:    40014400    .D.@    DCD    1073824768
        0x08001624:    40014800    .H.@    DCD    1073825792
        0x08001628:    40001800    ...@    DCD    1073747968
        0x0800162c:    40001c00    ...@    DCD    1073748992
        0x08001630:    40002000    . .@    DCD    1073750016
        0x08001634:    2e5c2e2e    ..\.    DCD    777793070
        0x08001638:    61485c2e    .\Ha    DCD    1632132142
        0x0800163c:    61776472    rdwa    DCD    1635214450
        0x08001640:    735c6572    re\s    DCD    1935435122
        0x08001644:    625c6372    rc\b    DCD    1650221938
        0x08001648:    745f7073    sp_t    DCD    1952411763
        0x0800164c:    72656d69    imer    DCD    1919249769
        0x08001650:    00632e73    s.c.    DCD    6499955
    $t
    i.bsp_SpiBusEnter
    bsp_SpiBusEnter
        0x08001654:    2001        .       MOVS     r0,#1
        0x08001656:    4901        .I      LDR      r1,[pc,#4] ; [0x800165c] = 0x20000020
        0x08001658:    7008        .p      STRB     r0,[r1,#0]
        0x0800165a:    4770        pG      BX       lr
    $d
        0x0800165c:    20000020     ..     DCD    536870944
    $t
    i.bsp_SpiBusExit
    bsp_SpiBusExit
        0x08001660:    2000        .       MOVS     r0,#0
        0x08001662:    4901        .I      LDR      r1,[pc,#4] ; [0x8001668] = 0x20000020
        0x08001664:    7008        .p      STRB     r0,[r1,#0]
        0x08001666:    4770        pG      BX       lr
    $d
        0x08001668:    20000020     ..     DCD    536870944
    $t
    i.bsp_WriteCpuFlash
    bsp_WriteCpuFlash
        0x0800166c:    e92d4ff8    -..O    PUSH     {r3-r11,lr}
        0x08001670:    4606        .F      MOV      r6,r0
        0x08001672:    460f        .F      MOV      r7,r1
        0x08001674:    4614        .F      MOV      r4,r2
        0x08001676:    1930        0.      ADDS     r0,r6,r4
        0x08001678:    f1b06f01    ...o    CMP      r0,#0x8100000
        0x0800167c:    d902        ..      BLS      0x8001684 ; bsp_WriteCpuFlash + 24
        0x0800167e:    2001        .       MOVS     r0,#1
        0x08001680:    e8bd8ff8    ....    POP      {r3-r11,pc}
        0x08001684:    b90c        ..      CBNZ     r4,0x800168a ; bsp_WriteCpuFlash + 30
        0x08001686:    2000        .       MOVS     r0,#0
        0x08001688:    e7fa        ..      B        0x8001680 ; bsp_WriteCpuFlash + 20
        0x0800168a:    4622        "F      MOV      r2,r4
        0x0800168c:    4639        9F      MOV      r1,r7
        0x0800168e:    4630        0F      MOV      r0,r6
        0x08001690:    f7fffbe5    ....    BL       bsp_CmpCpuFlash ; 0x8000e5e
        0x08001694:    4680        .F      MOV      r8,r0
        0x08001696:    f1b80f00    ....    CMP      r8,#0
        0x0800169a:    d101        ..      BNE      0x80016a0 ; bsp_WriteCpuFlash + 52
        0x0800169c:    2000        .       MOVS     r0,#0
        0x0800169e:    e7ef        ..      B        0x8001680 ; bsp_WriteCpuFlash + 20
        0x080016a0:    2001        .       MOVS     r0,#1
        0x080016a2:    f3808810    ....    MSR      PRIMASK,r0
        0x080016a6:    bf00        ..      NOP      
        0x080016a8:    f000fbfc    ....    BL       fmc_unlock ; 0x8001ea4
        0x080016ac:    20d3        .       MOVS     r0,#0xd3
        0x080016ae:    f000fb83    ....    BL       fmc_flag_clear ; 0x8001db8
        0x080016b2:    4630        0F      MOV      r0,r6
        0x080016b4:    f7fffbf6    ....    BL       bsp_GetSector ; 0x8000ea4
        0x080016b8:    fa1ff980    ....    UXTH     r9,r0
        0x080016bc:    1930        0.      ADDS     r0,r6,r4
        0x080016be:    f7fffbf1    ....    BL       bsp_GetSector ; 0x8000ea4
        0x080016c2:    fa1ffa80    ....    UXTH     r10,r0
        0x080016c6:    464d        MF      MOV      r5,r9
        0x080016c8:    e008        ..      B        0x80016dc ; bsp_WriteCpuFlash + 112
        0x080016ca:    4628        (F      MOV      r0,r5
        0x080016cc:    f000fb94    ....    BL       fmc_sector_erase ; 0x8001df8
        0x080016d0:    b118        ..      CBZ      r0,0x80016da ; bsp_WriteCpuFlash + 110
        0x080016d2:    21ed        .!      MOVS     r1,#0xed
        0x080016d4:    a01c        ..      ADR      r0,{pc}+0x74 ; 0x8001748
        0x080016d6:    f7fefefb    ....    BL       Error_Handler ; 0x80004d0
        0x080016da:    3508        .5      ADDS     r5,r5,#8
        0x080016dc:    4555        UE      CMP      r5,r10
        0x080016de:    d9f4        ..      BLS      0x80016ca ; bsp_WriteCpuFlash + 94
        0x080016e0:    2500        .%      MOVS     r5,#0
        0x080016e2:    e00b        ..      B        0x80016fc ; bsp_WriteCpuFlash + 144
        0x080016e4:    f8d7b000    ....    LDR      r11,[r7,#0]
        0x080016e8:    1d3f        ?.      ADDS     r7,r7,#4
        0x080016ea:    4659        YF      MOV      r1,r11
        0x080016ec:    4630        0F      MOV      r0,r6
        0x080016ee:    f000fbeb    ....    BL       fmc_word_program ; 0x8001ec8
        0x080016f2:    b908        ..      CBNZ     r0,0x80016f8 ; bsp_WriteCpuFlash + 140
        0x080016f4:    1d36        6.      ADDS     r6,r6,#4
        0x080016f6:    e000        ..      B        0x80016fa ; bsp_WriteCpuFlash + 142
        0x080016f8:    e01d        ..      B        0x8001736 ; bsp_WriteCpuFlash + 202
        0x080016fa:    1c6d        m.      ADDS     r5,r5,#1
        0x080016fc:    ebb50f94    ....    CMP      r5,r4,LSR #2
        0x08001700:    d3f0        ..      BCC      0x80016e4 ; bsp_WriteCpuFlash + 120
        0x08001702:    f0040003    ....    AND      r0,r4,#3
        0x08001706:    b178        x.      CBZ      r0,0x8001728 ; bsp_WriteCpuFlash + 188
        0x08001708:    f04f30ff    O..0    MOV      r0,#0xffffffff
        0x0800170c:    9000        ..      STR      r0,[sp,#0]
        0x0800170e:    f0040203    ....    AND      r2,r4,#3
        0x08001712:    4639        9F      MOV      r1,r7
        0x08001714:    4668        hF      MOV      r0,sp
        0x08001716:    f7fefd67    ..g.    BL       __aeabi_memcpy ; 0x80001e8
        0x0800171a:    4630        0F      MOV      r0,r6
        0x0800171c:    9900        ..      LDR      r1,[sp,#0]
        0x0800171e:    f000fbd3    ....    BL       fmc_word_program ; 0x8001ec8
        0x08001722:    b100        ..      CBZ      r0,0x8001726 ; bsp_WriteCpuFlash + 186
        0x08001724:    e007        ..      B        0x8001736 ; bsp_WriteCpuFlash + 202
        0x08001726:    bf00        ..      NOP      
        0x08001728:    f000fb4c    ..L.    BL       fmc_lock ; 0x8001dc4
        0x0800172c:    2000        .       MOVS     r0,#0
        0x0800172e:    f3808810    ....    MSR      PRIMASK,r0
        0x08001732:    bf00        ..      NOP      
        0x08001734:    e7a4        ..      B        0x8001680 ; bsp_WriteCpuFlash + 20
        0x08001736:    f000fb45    ..E.    BL       fmc_lock ; 0x8001dc4
        0x0800173a:    2000        .       MOVS     r0,#0
        0x0800173c:    f3808810    ....    MSR      PRIMASK,r0
        0x08001740:    bf00        ..      NOP      
        0x08001742:    2001        .       MOVS     r0,#1
        0x08001744:    e79c        ..      B        0x8001680 ; bsp_WriteCpuFlash + 20
    $d
        0x08001746:    0000        ..      DCW    0
        0x08001748:    2e5c2e2e    ..\.    DCD    777793070
        0x0800174c:    61485c2e    .\Ha    DCD    1632132142
        0x08001750:    61776472    rdwa    DCD    1635214450
        0x08001754:    735c6572    re\s    DCD    1935435122
        0x08001758:    625c6372    rc\b    DCD    1650221938
        0x0800175c:    635f7073    sp_c    DCD    1667199091
        0x08001760:    665f7570    pu_f    DCD    1717532016
        0x08001764:    6873616c    lash    DCD    1752392044
        0x08001768:    0000632e    .c..    DCD    25390
    $t
    i.bsp_spiTransfer
    bsp_spiTransfer
        0x0800176c:    b510        ..      PUSH     {r4,lr}
        0x0800176e:    481c        .H      LDR      r0,[pc,#112] ; [0x80017e0] = 0x2000001c
        0x08001770:    6800        .h      LDR      r0,[r0,#0]
        0x08001772:    f5b05f80    ..._    CMP      r0,#0x1000
        0x08001776:    d900        ..      BLS      0x800177a ; bsp_spiTransfer + 14
        0x08001778:    bd10        ..      POP      {r4,pc}
        0x0800177a:    2000        .       MOVS     r0,#0
        0x0800177c:    4919        .I      LDR      r1,[pc,#100] ; [0x80017e4] = 0x20000024
        0x0800177e:    6008        .`      STR      r0,[r1,#0]
        0x08001780:    2103        .!      MOVS     r1,#3
        0x08001782:    4819        .H      LDR      r0,[pc,#100] ; [0x80017e8] = 0x40026400
        0x08001784:    f000f874    ..t.    BL       dma_channel_disable ; 0x8001870
        0x08001788:    2102        .!      MOVS     r1,#2
        0x0800178a:    4817        .H      LDR      r0,[pc,#92] ; [0x80017e8] = 0x40026400
        0x0800178c:    f000f870    ..p.    BL       dma_channel_disable ; 0x8001870
        0x08001790:    4813        .H      LDR      r0,[pc,#76] ; [0x80017e0] = 0x2000001c
        0x08001792:    2103        .!      MOVS     r1,#3
        0x08001794:    6802        .h      LDR      r2,[r0,#0]
        0x08001796:    4814        .H      LDR      r0,[pc,#80] ; [0x80017e8] = 0x40026400
        0x08001798:    f000fb06    ....    BL       dma_transfer_number_config ; 0x8001da8
        0x0800179c:    4810        .H      LDR      r0,[pc,#64] ; [0x80017e0] = 0x2000001c
        0x0800179e:    2102        .!      MOVS     r1,#2
        0x080017a0:    6802        .h      LDR      r2,[r0,#0]
        0x080017a2:    4811        .H      LDR      r0,[pc,#68] ; [0x80017e8] = 0x40026400
        0x080017a4:    f000fb00    ....    BL       dma_transfer_number_config ; 0x8001da8
        0x080017a8:    4810        .H      LDR      r0,[pc,#64] ; [0x80017ec] = 0x40013000
        0x080017aa:    f001fc6f    ..o.    BL       spi_i2s_data_receive ; 0x800308c
        0x080017ae:    2220         "      MOVS     r2,#0x20
        0x080017b0:    2103        .!      MOVS     r1,#3
        0x080017b2:    480d        .H      LDR      r0,[pc,#52] ; [0x80017e8] = 0x40026400
        0x080017b4:    f000f901    ....    BL       dma_interrupt_flag_clear ; 0x80019ba
        0x080017b8:    2220         "      MOVS     r2,#0x20
        0x080017ba:    2102        .!      MOVS     r1,#2
        0x080017bc:    480a        .H      LDR      r0,[pc,#40] ; [0x80017e8] = 0x40026400
        0x080017be:    f000f8fc    ....    BL       dma_interrupt_flag_clear ; 0x80019ba
        0x080017c2:    2103        .!      MOVS     r1,#3
        0x080017c4:    4808        .H      LDR      r0,[pc,#32] ; [0x80017e8] = 0x40026400
        0x080017c6:    f000f863    ..c.    BL       dma_channel_enable ; 0x8001890
        0x080017ca:    2102        .!      MOVS     r1,#2
        0x080017cc:    4806        .H      LDR      r0,[pc,#24] ; [0x80017e8] = 0x40026400
        0x080017ce:    f000f85f    .._.    BL       dma_channel_enable ; 0x8001890
        0x080017d2:    bf00        ..      NOP      
        0x080017d4:    4803        .H      LDR      r0,[pc,#12] ; [0x80017e4] = 0x20000024
        0x080017d6:    6800        .h      LDR      r0,[r0,#0]
        0x080017d8:    2800        .(      CMP      r0,#0
        0x080017da:    d0fb        ..      BEQ      0x80017d4 ; bsp_spiTransfer + 104
        0x080017dc:    bf00        ..      NOP      
        0x080017de:    e7cb        ..      B        0x8001778 ; bsp_spiTransfer + 12
    $d
        0x080017e0:    2000001c    ...     DCD    536870940
        0x080017e4:    20000024    $..     DCD    536870948
        0x080017e8:    40026400    .d.@    DCD    1073898496
        0x080017ec:    40013000    .0.@    DCD    1073819648
    $t
    i.delay_decrement
    delay_decrement
        0x080017f0:    4804        .H      LDR      r0,[pc,#16] ; [0x8001804] = 0x20000008
        0x080017f2:    6800        .h      LDR      r0,[r0,#0]
        0x080017f4:    b120         .      CBZ      r0,0x8001800 ; delay_decrement + 16
        0x080017f6:    4803        .H      LDR      r0,[pc,#12] ; [0x8001804] = 0x20000008
        0x080017f8:    6800        .h      LDR      r0,[r0,#0]
        0x080017fa:    1e40        @.      SUBS     r0,r0,#1
        0x080017fc:    4901        .I      LDR      r1,[pc,#4] ; [0x8001804] = 0x20000008
        0x080017fe:    6008        .`      STR      r0,[r1,#0]
        0x08001800:    4770        pG      BX       lr
    $d
        0x08001802:    0000        ..      DCW    0
        0x08001804:    20000008    ...     DCD    536870920
    $t
    i.delay_init
    delay_init
        0x08001808:    4901        .I      LDR      r1,[pc,#4] ; [0x8001810] = 0x20000010
        0x0800180a:    6008        .`      STR      r0,[r1,#0]
        0x0800180c:    4770        pG      BX       lr
    $d
        0x0800180e:    0000        ..      DCW    0
        0x08001810:    20000010    ...     DCD    536870928
    $t
    i.delay_ms
    delay_ms
        0x08001814:    b510        ..      PUSH     {r4,lr}
        0x08001816:    4604        .F      MOV      r4,r0
        0x08001818:    f44f717a    O.zq    MOV      r1,#0x3e8
        0x0800181c:    fb04f001    ....    MUL      r0,r4,r1
        0x08001820:    f000f802    ....    BL       delay_us ; 0x8001828
        0x08001824:    bd10        ..      POP      {r4,pc}
        0x08001826:    0000        ..      MOVS     r0,r0
    i.delay_us
    delay_us
        0x08001828:    b570        p.      PUSH     {r4-r6,lr}
        0x0800182a:    4603        .F      MOV      r3,r0
        0x0800182c:    2200        ."      MOVS     r2,#0
        0x0800182e:    f04f26e0    O..&    MOV      r6,#0xe000e000
        0x08001832:    6975        ui      LDR      r5,[r6,#0x14]
        0x08001834:    4e0d        .N      LDR      r6,[pc,#52] ; [0x800186c] = 0x20000010
        0x08001836:    6836        6h      LDR      r6,[r6,#0]
        0x08001838:    fb03f406    ....    MUL      r4,r3,r6
        0x0800183c:    f04f26e0    O..&    MOV      r6,#0xe000e000
        0x08001840:    69b1        .i      LDR      r1,[r6,#0x18]
        0x08001842:    e010        ..      B        0x8001866 ; delay_us + 62
        0x08001844:    f04f26e0    O..&    MOV      r6,#0xe000e000
        0x08001848:    69b0        .i      LDR      r0,[r6,#0x18]
        0x0800184a:    4288        .B      CMP      r0,r1
        0x0800184c:    d00b        ..      BEQ      0x8001866 ; delay_us + 62
        0x0800184e:    4288        .B      CMP      r0,r1
        0x08001850:    d202        ..      BCS      0x8001858 ; delay_us + 48
        0x08001852:    1a0e        ..      SUBS     r6,r1,r0
        0x08001854:    4432        2D      ADD      r2,r2,r6
        0x08001856:    e002        ..      B        0x800185e ; delay_us + 54
        0x08001858:    1a2e        ..      SUBS     r6,r5,r0
        0x0800185a:    440e        .D      ADD      r6,r6,r1
        0x0800185c:    4432        2D      ADD      r2,r2,r6
        0x0800185e:    4601        .F      MOV      r1,r0
        0x08001860:    42a2        .B      CMP      r2,r4
        0x08001862:    d300        ..      BCC      0x8001866 ; delay_us + 62
        0x08001864:    e000        ..      B        0x8001868 ; delay_us + 64
        0x08001866:    e7ed        ..      B        0x8001844 ; delay_us + 28
        0x08001868:    bf00        ..      NOP      
        0x0800186a:    bd70        p.      POP      {r4-r6,pc}
    $d
        0x0800186c:    20000010    ...     DCD    536870928
    $t
    i.dma_channel_disable
    dma_channel_disable
        0x08001870:    b510        ..      PUSH     {r4,lr}
        0x08001872:    eb010241    ..A.    ADD      r2,r1,r1,LSL #1
        0x08001876:    00d3        ..      LSLS     r3,r2,#3
        0x08001878:    f1000210    ....    ADD      r2,r0,#0x10
        0x0800187c:    58d2        .X      LDR      r2,[r2,r3]
        0x0800187e:    f0220301    "...    BIC      r3,r2,#1
        0x08001882:    eb010241    ..A.    ADD      r2,r1,r1,LSL #1
        0x08001886:    00d4        ..      LSLS     r4,r2,#3
        0x08001888:    f1000210    ....    ADD      r2,r0,#0x10
        0x0800188c:    5113        .Q      STR      r3,[r2,r4]
        0x0800188e:    bd10        ..      POP      {r4,pc}
    i.dma_channel_enable
    dma_channel_enable
        0x08001890:    b510        ..      PUSH     {r4,lr}
        0x08001892:    eb010241    ..A.    ADD      r2,r1,r1,LSL #1
        0x08001896:    00d3        ..      LSLS     r3,r2,#3
        0x08001898:    f1000210    ....    ADD      r2,r0,#0x10
        0x0800189c:    58d2        .X      LDR      r2,[r2,r3]
        0x0800189e:    f0420301    B...    ORR      r3,r2,#1
        0x080018a2:    eb010241    ..A.    ADD      r2,r1,r1,LSL #1
        0x080018a6:    00d4        ..      LSLS     r4,r2,#3
        0x080018a8:    f1000210    ....    ADD      r2,r0,#0x10
        0x080018ac:    5113        .Q      STR      r3,[r2,r4]
        0x080018ae:    bd10        ..      POP      {r4,pc}
    i.dma_channel_subperipheral_select
    dma_channel_subperipheral_select
        0x080018b0:    b530        0.      PUSH     {r4,r5,lr}
        0x080018b2:    4613        .F      MOV      r3,r2
        0x080018b4:    eb010441    ..A.    ADD      r4,r1,r1,LSL #1
        0x080018b8:    00e5        ..      LSLS     r5,r4,#3
        0x080018ba:    f1000410    ....    ADD      r4,r0,#0x10
        0x080018be:    5962        bY      LDR      r2,[r4,r5]
        0x080018c0:    f0226260    ".`b    BIC      r2,r2,#0xe000000
        0x080018c4:    ea426243    B.Cb    ORR      r2,r2,r3,LSL #25
        0x080018c8:    eb010441    ..A.    ADD      r4,r1,r1,LSL #1
        0x080018cc:    00e5        ..      LSLS     r5,r4,#3
        0x080018ce:    f1000410    ....    ADD      r4,r0,#0x10
        0x080018d2:    5162        bQ      STR      r2,[r4,r5]
        0x080018d4:    bd30        0.      POP      {r4,r5,pc}
    i.dma_deinit
    dma_deinit
        0x080018d6:    b510        ..      PUSH     {r4,lr}
        0x080018d8:    eb010241    ..A.    ADD      r2,r1,r1,LSL #1
        0x080018dc:    00d3        ..      LSLS     r3,r2,#3
        0x080018de:    f1000210    ....    ADD      r2,r0,#0x10
        0x080018e2:    58d2        .X      LDR      r2,[r2,r3]
        0x080018e4:    f0220301    "...    BIC      r3,r2,#1
        0x080018e8:    eb010241    ..A.    ADD      r2,r1,r1,LSL #1
        0x080018ec:    00d4        ..      LSLS     r4,r2,#3
        0x080018ee:    f1000210    ....    ADD      r2,r0,#0x10
        0x080018f2:    5113        .Q      STR      r3,[r2,r4]
        0x080018f4:    2300        .#      MOVS     r3,#0
        0x080018f6:    eb010241    ..A.    ADD      r2,r1,r1,LSL #1
        0x080018fa:    00d4        ..      LSLS     r4,r2,#3
        0x080018fc:    f1000210    ....    ADD      r2,r0,#0x10
        0x08001900:    5113        .Q      STR      r3,[r2,r4]
        0x08001902:    eb010241    ..A.    ADD      r2,r1,r1,LSL #1
        0x08001906:    00d4        ..      LSLS     r4,r2,#3
        0x08001908:    f1000214    ....    ADD      r2,r0,#0x14
        0x0800190c:    5113        .Q      STR      r3,[r2,r4]
        0x0800190e:    eb010241    ..A.    ADD      r2,r1,r1,LSL #1
        0x08001912:    00d4        ..      LSLS     r4,r2,#3
        0x08001914:    f1000218    ....    ADD      r2,r0,#0x18
        0x08001918:    5113        .Q      STR      r3,[r2,r4]
        0x0800191a:    eb010241    ..A.    ADD      r2,r1,r1,LSL #1
        0x0800191e:    00d4        ..      LSLS     r4,r2,#3
        0x08001920:    f100021c    ....    ADD      r2,r0,#0x1c
        0x08001924:    5113        .Q      STR      r3,[r2,r4]
        0x08001926:    eb010241    ..A.    ADD      r2,r1,r1,LSL #1
        0x0800192a:    00d4        ..      LSLS     r4,r2,#3
        0x0800192c:    f1000220    .. .    ADD      r2,r0,#0x20
        0x08001930:    5113        .Q      STR      r3,[r2,r4]
        0x08001932:    2321        !#      MOVS     r3,#0x21
        0x08001934:    eb010241    ..A.    ADD      r2,r1,r1,LSL #1
        0x08001938:    00d4        ..      LSLS     r4,r2,#3
        0x0800193a:    f1000224    ..$.    ADD      r2,r0,#0x24
        0x0800193e:    5113        .Q      STR      r3,[r2,r4]
        0x08001940:    2904        .)      CMP      r1,#4
        0x08001942:    da0c        ..      BGE      0x800195e ; dma_deinit + 136
        0x08001944:    eb010241    ..A.    ADD      r2,r1,r1,LSL #1
        0x08001948:    0053        S.      LSLS     r3,r2,#1
        0x0800194a:    f3c10240    ..@.    UBFX     r2,r1,#1,#1
        0x0800194e:    eb030382    ....    ADD      r3,r3,r2,LSL #2
        0x08001952:    223d        ="      MOVS     r2,#0x3d
        0x08001954:    409a        .@      LSLS     r2,r2,r3
        0x08001956:    6883        .h      LDR      r3,[r0,#8]
        0x08001958:    431a        .C      ORRS     r2,r2,r3
        0x0800195a:    6082        .`      STR      r2,[r0,#8]
        0x0800195c:    e00d        ..      B        0x800197a ; dma_deinit + 164
        0x0800195e:    1f0a        ..      SUBS     r2,r1,#4
        0x08001960:    b2d1        ..      UXTB     r1,r2
        0x08001962:    eb010241    ..A.    ADD      r2,r1,r1,LSL #1
        0x08001966:    0053        S.      LSLS     r3,r2,#1
        0x08001968:    f3c10240    ..@.    UBFX     r2,r1,#1,#1
        0x0800196c:    eb030382    ....    ADD      r3,r3,r2,LSL #2
        0x08001970:    223d        ="      MOVS     r2,#0x3d
        0x08001972:    409a        .@      LSLS     r2,r2,r3
        0x08001974:    68c3        .h      LDR      r3,[r0,#0xc]
        0x08001976:    431a        .C      ORRS     r2,r2,r3
        0x08001978:    60c2        .`      STR      r2,[r0,#0xc]
        0x0800197a:    bd10        ..      POP      {r4,pc}
    i.dma_interrupt_enable
    dma_interrupt_enable
        0x0800197c:    b530        0.      PUSH     {r4,r5,lr}
        0x0800197e:    2a80        .*      CMP      r2,#0x80
        0x08001980:    d00d        ..      BEQ      0x800199e ; dma_interrupt_enable + 34
        0x08001982:    eb010341    ..A.    ADD      r3,r1,r1,LSL #1
        0x08001986:    00dc        ..      LSLS     r4,r3,#3
        0x08001988:    f1000310    ....    ADD      r3,r0,#0x10
        0x0800198c:    591b        .Y      LDR      r3,[r3,r4]
        0x0800198e:    4313        .C      ORRS     r3,r3,r2
        0x08001990:    eb010441    ..A.    ADD      r4,r1,r1,LSL #1
        0x08001994:    00e5        ..      LSLS     r5,r4,#3
        0x08001996:    f1000410    ....    ADD      r4,r0,#0x10
        0x0800199a:    5163        cQ      STR      r3,[r4,r5]
        0x0800199c:    e00c        ..      B        0x80019b8 ; dma_interrupt_enable + 60
        0x0800199e:    eb010341    ..A.    ADD      r3,r1,r1,LSL #1
        0x080019a2:    00dc        ..      LSLS     r4,r3,#3
        0x080019a4:    f1000324    ..$.    ADD      r3,r0,#0x24
        0x080019a8:    591b        .Y      LDR      r3,[r3,r4]
        0x080019aa:    4313        .C      ORRS     r3,r3,r2
        0x080019ac:    eb010441    ..A.    ADD      r4,r1,r1,LSL #1
        0x080019b0:    00e5        ..      LSLS     r5,r4,#3
        0x080019b2:    f1000424    ..$.    ADD      r4,r0,#0x24
        0x080019b6:    5163        cQ      STR      r3,[r4,r5]
        0x080019b8:    bd30        0.      POP      {r4,r5,pc}
    i.dma_interrupt_flag_clear
    dma_interrupt_flag_clear
        0x080019ba:    b510        ..      PUSH     {r4,lr}
        0x080019bc:    2904        .)      CMP      r1,#4
        0x080019be:    da0c        ..      BGE      0x80019da ; dma_interrupt_flag_clear + 32
        0x080019c0:    eb010341    ..A.    ADD      r3,r1,r1,LSL #1
        0x080019c4:    005c        \.      LSLS     r4,r3,#1
        0x080019c6:    f3c10340    ..@.    UBFX     r3,r1,#1,#1
        0x080019ca:    eb040383    ....    ADD      r3,r4,r3,LSL #2
        0x080019ce:    fa02f303    ....    LSL      r3,r2,r3
        0x080019d2:    6884        .h      LDR      r4,[r0,#8]
        0x080019d4:    4323        #C      ORRS     r3,r3,r4
        0x080019d6:    6083        .`      STR      r3,[r0,#8]
        0x080019d8:    e00d        ..      B        0x80019f6 ; dma_interrupt_flag_clear + 60
        0x080019da:    1f0b        ..      SUBS     r3,r1,#4
        0x080019dc:    b2d9        ..      UXTB     r1,r3
        0x080019de:    eb010341    ..A.    ADD      r3,r1,r1,LSL #1
        0x080019e2:    005c        \.      LSLS     r4,r3,#1
        0x080019e4:    f3c10340    ..@.    UBFX     r3,r1,#1,#1
        0x080019e8:    eb040383    ....    ADD      r3,r4,r3,LSL #2
        0x080019ec:    fa02f303    ....    LSL      r3,r2,r3
        0x080019f0:    68c4        .h      LDR      r4,[r0,#0xc]
        0x080019f2:    4323        #C      ORRS     r3,r3,r4
        0x080019f4:    60c3        .`      STR      r3,[r0,#0xc]
        0x080019f6:    bd10        ..      POP      {r4,pc}
    i.dma_interrupt_flag_get
    dma_interrupt_flag_get
        0x080019f8:    b5f0        ..      PUSH     {r4-r7,lr}
        0x080019fa:    4603        .F      MOV      r3,r0
        0x080019fc:    2000        .       MOVS     r0,#0
        0x080019fe:    2500        .%      MOVS     r5,#0
        0x08001a00:    2600        .&      MOVS     r6,#0
        0x08001a02:    460c        .F      MOV      r4,r1
        0x08001a04:    2904        .)      CMP      r1,#4
        0x08001a06:    da70        p.      BGE      0x8001aea ; dma_interrupt_flag_get + 242
        0x08001a08:    2a08        .*      CMP      r2,#8
        0x08001a0a:    d03c        <.      BEQ      0x8001a86 ; dma_interrupt_flag_get + 142
        0x08001a0c:    dc04        ..      BGT      0x8001a18 ; dma_interrupt_flag_get + 32
        0x08001a0e:    2a01        .*      CMP      r2,#1
        0x08001a10:    d007        ..      BEQ      0x8001a22 ; dma_interrupt_flag_get + 42
        0x08001a12:    2a04        .*      CMP      r2,#4
        0x08001a14:    d16a        j.      BNE      0x8001aec ; dma_interrupt_flag_get + 244
        0x08001a16:    e01d        ..      B        0x8001a54 ; dma_interrupt_flag_get + 92
        0x08001a18:    2a10        .*      CMP      r2,#0x10
        0x08001a1a:    d04d        M.      BEQ      0x8001ab8 ; dma_interrupt_flag_get + 192
        0x08001a1c:    2a20         *      CMP      r2,#0x20
        0x08001a1e:    d17f        ..      BNE      0x8001b20 ; dma_interrupt_flag_get + 296
        0x08001a20:    e065        e.      B        0x8001aee ; dma_interrupt_flag_get + 246
        0x08001a22:    eb010741    ..A.    ADD      r7,r1,r1,LSL #1
        0x08001a26:    ea4f0c47    O.G.    LSL      r12,r7,#1
        0x08001a2a:    f3c10740    ..@.    UBFX     r7,r1,#1,#1
        0x08001a2e:    eb0c0787    ....    ADD      r7,r12,r7,LSL #2
        0x08001a32:    fa02f707    ....    LSL      r7,r2,r7
        0x08001a36:    f8d3c000    ....    LDR      r12,[r3,#0]
        0x08001a3a:    ea07060c    ....    AND      r6,r7,r12
        0x08001a3e:    eb010741    ..A.    ADD      r7,r1,r1,LSL #1
        0x08001a42:    ea4f0cc7    O...    LSL      r12,r7,#3
        0x08001a46:    f1030724    ..$.    ADD      r7,r3,#0x24
        0x08001a4a:    f857700c    W..p    LDR      r7,[r7,r12]
        0x08001a4e:    f0070580    ....    AND      r5,r7,#0x80
        0x08001a52:    e066        f.      B        0x8001b22 ; dma_interrupt_flag_get + 298
        0x08001a54:    eb010741    ..A.    ADD      r7,r1,r1,LSL #1
        0x08001a58:    ea4f0c47    O.G.    LSL      r12,r7,#1
        0x08001a5c:    f3c10740    ..@.    UBFX     r7,r1,#1,#1
        0x08001a60:    eb0c0787    ....    ADD      r7,r12,r7,LSL #2
        0x08001a64:    fa02f707    ....    LSL      r7,r2,r7
        0x08001a68:    f8d3c000    ....    LDR      r12,[r3,#0]
        0x08001a6c:    ea07060c    ....    AND      r6,r7,r12
        0x08001a70:    eb010741    ..A.    ADD      r7,r1,r1,LSL #1
        0x08001a74:    ea4f0cc7    O...    LSL      r12,r7,#3
        0x08001a78:    f1030710    ....    ADD      r7,r3,#0x10
        0x08001a7c:    f857700c    W..p    LDR      r7,[r7,r12]
        0x08001a80:    f0070502    ....    AND      r5,r7,#2
        0x08001a84:    e04d        M.      B        0x8001b22 ; dma_interrupt_flag_get + 298
        0x08001a86:    eb010741    ..A.    ADD      r7,r1,r1,LSL #1
        0x08001a8a:    ea4f0c47    O.G.    LSL      r12,r7,#1
        0x08001a8e:    f3c10740    ..@.    UBFX     r7,r1,#1,#1
        0x08001a92:    eb0c0787    ....    ADD      r7,r12,r7,LSL #2
        0x08001a96:    fa02f707    ....    LSL      r7,r2,r7
        0x08001a9a:    f8d3c000    ....    LDR      r12,[r3,#0]
        0x08001a9e:    ea07060c    ....    AND      r6,r7,r12
        0x08001aa2:    eb010741    ..A.    ADD      r7,r1,r1,LSL #1
        0x08001aa6:    ea4f0cc7    O...    LSL      r12,r7,#3
        0x08001aaa:    f1030710    ....    ADD      r7,r3,#0x10
        0x08001aae:    f857700c    W..p    LDR      r7,[r7,r12]
        0x08001ab2:    f0070504    ....    AND      r5,r7,#4
        0x08001ab6:    e034        4.      B        0x8001b22 ; dma_interrupt_flag_get + 298
        0x08001ab8:    eb010741    ..A.    ADD      r7,r1,r1,LSL #1
        0x08001abc:    ea4f0c47    O.G.    LSL      r12,r7,#1
        0x08001ac0:    f3c10740    ..@.    UBFX     r7,r1,#1,#1
        0x08001ac4:    eb0c0787    ....    ADD      r7,r12,r7,LSL #2
        0x08001ac8:    fa02f707    ....    LSL      r7,r2,r7
        0x08001acc:    f8d3c000    ....    LDR      r12,[r3,#0]
        0x08001ad0:    ea07060c    ....    AND      r6,r7,r12
        0x08001ad4:    eb010741    ..A.    ADD      r7,r1,r1,LSL #1
        0x08001ad8:    ea4f0cc7    O...    LSL      r12,r7,#3
        0x08001adc:    f1030710    ....    ADD      r7,r3,#0x10
        0x08001ae0:    f857700c    W..p    LDR      r7,[r7,r12]
        0x08001ae4:    f0070508    ....    AND      r5,r7,#8
        0x08001ae8:    e01b        ..      B        0x8001b22 ; dma_interrupt_flag_get + 298
        0x08001aea:    e01b        ..      B        0x8001b24 ; dma_interrupt_flag_get + 300
        0x08001aec:    e018        ..      B        0x8001b20 ; dma_interrupt_flag_get + 296
        0x08001aee:    eb010741    ..A.    ADD      r7,r1,r1,LSL #1
        0x08001af2:    ea4f0c47    O.G.    LSL      r12,r7,#1
        0x08001af6:    f3c10740    ..@.    UBFX     r7,r1,#1,#1
        0x08001afa:    eb0c0787    ....    ADD      r7,r12,r7,LSL #2
        0x08001afe:    fa02f707    ....    LSL      r7,r2,r7
        0x08001b02:    f8d3c000    ....    LDR      r12,[r3,#0]
        0x08001b06:    ea07060c    ....    AND      r6,r7,r12
        0x08001b0a:    eb010741    ..A.    ADD      r7,r1,r1,LSL #1
        0x08001b0e:    ea4f0cc7    O...    LSL      r12,r7,#3
        0x08001b12:    f1030710    ....    ADD      r7,r3,#0x10
        0x08001b16:    f857700c    W..p    LDR      r7,[r7,r12]
        0x08001b1a:    f0070510    ....    AND      r5,r7,#0x10
        0x08001b1e:    e000        ..      B        0x8001b22 ; dma_interrupt_flag_get + 298
        0x08001b20:    bf00        ..      NOP      
        0x08001b22:    e08f        ..      B        0x8001c44 ; dma_interrupt_flag_get + 588
        0x08001b24:    1f27        '.      SUBS     r7,r4,#4
        0x08001b26:    b2fc        ..      UXTB     r4,r7
        0x08001b28:    2a08        .*      CMP      r2,#8
        0x08001b2a:    d03c        <.      BEQ      0x8001ba6 ; dma_interrupt_flag_get + 430
        0x08001b2c:    dc04        ..      BGT      0x8001b38 ; dma_interrupt_flag_get + 320
        0x08001b2e:    2a01        .*      CMP      r2,#1
        0x08001b30:    d007        ..      BEQ      0x8001b42 ; dma_interrupt_flag_get + 330
        0x08001b32:    2a04        .*      CMP      r2,#4
        0x08001b34:    d17e        ~.      BNE      0x8001c34 ; dma_interrupt_flag_get + 572
        0x08001b36:    e01d        ..      B        0x8001b74 ; dma_interrupt_flag_get + 380
        0x08001b38:    2a10        .*      CMP      r2,#0x10
        0x08001b3a:    d04d        M.      BEQ      0x8001bd8 ; dma_interrupt_flag_get + 480
        0x08001b3c:    2a20         *      CMP      r2,#0x20
        0x08001b3e:    d17f        ..      BNE      0x8001c40 ; dma_interrupt_flag_get + 584
        0x08001b40:    e063        c.      B        0x8001c0a ; dma_interrupt_flag_get + 530
        0x08001b42:    eb040744    ..D.    ADD      r7,r4,r4,LSL #1
        0x08001b46:    ea4f0c47    O.G.    LSL      r12,r7,#1
        0x08001b4a:    f3c40740    ..@.    UBFX     r7,r4,#1,#1
        0x08001b4e:    eb0c0787    ....    ADD      r7,r12,r7,LSL #2
        0x08001b52:    fa02f707    ....    LSL      r7,r2,r7
        0x08001b56:    f8d3c004    ....    LDR      r12,[r3,#4]
        0x08001b5a:    ea07060c    ....    AND      r6,r7,r12
        0x08001b5e:    eb010741    ..A.    ADD      r7,r1,r1,LSL #1
        0x08001b62:    ea4f0cc7    O...    LSL      r12,r7,#3
        0x08001b66:    f1030724    ..$.    ADD      r7,r3,#0x24
        0x08001b6a:    f857700c    W..p    LDR      r7,[r7,r12]
        0x08001b6e:    f0070580    ....    AND      r5,r7,#0x80
        0x08001b72:    e066        f.      B        0x8001c42 ; dma_interrupt_flag_get + 586
        0x08001b74:    eb040744    ..D.    ADD      r7,r4,r4,LSL #1
        0x08001b78:    ea4f0c47    O.G.    LSL      r12,r7,#1
        0x08001b7c:    f3c40740    ..@.    UBFX     r7,r4,#1,#1
        0x08001b80:    eb0c0787    ....    ADD      r7,r12,r7,LSL #2
        0x08001b84:    fa02f707    ....    LSL      r7,r2,r7
        0x08001b88:    f8d3c004    ....    LDR      r12,[r3,#4]
        0x08001b8c:    ea07060c    ....    AND      r6,r7,r12
        0x08001b90:    eb010741    ..A.    ADD      r7,r1,r1,LSL #1
        0x08001b94:    ea4f0cc7    O...    LSL      r12,r7,#3
        0x08001b98:    f1030710    ....    ADD      r7,r3,#0x10
        0x08001b9c:    f857700c    W..p    LDR      r7,[r7,r12]
        0x08001ba0:    f0070502    ....    AND      r5,r7,#2
        0x08001ba4:    e04d        M.      B        0x8001c42 ; dma_interrupt_flag_get + 586
        0x08001ba6:    eb040744    ..D.    ADD      r7,r4,r4,LSL #1
        0x08001baa:    ea4f0c47    O.G.    LSL      r12,r7,#1
        0x08001bae:    f3c40740    ..@.    UBFX     r7,r4,#1,#1
        0x08001bb2:    eb0c0787    ....    ADD      r7,r12,r7,LSL #2
        0x08001bb6:    fa02f707    ....    LSL      r7,r2,r7
        0x08001bba:    f8d3c004    ....    LDR      r12,[r3,#4]
        0x08001bbe:    ea07060c    ....    AND      r6,r7,r12
        0x08001bc2:    eb010741    ..A.    ADD      r7,r1,r1,LSL #1
        0x08001bc6:    ea4f0cc7    O...    LSL      r12,r7,#3
        0x08001bca:    f1030710    ....    ADD      r7,r3,#0x10
        0x08001bce:    f857700c    W..p    LDR      r7,[r7,r12]
        0x08001bd2:    f0070504    ....    AND      r5,r7,#4
        0x08001bd6:    e034        4.      B        0x8001c42 ; dma_interrupt_flag_get + 586
        0x08001bd8:    eb040744    ..D.    ADD      r7,r4,r4,LSL #1
        0x08001bdc:    ea4f0c47    O.G.    LSL      r12,r7,#1
        0x08001be0:    f3c40740    ..@.    UBFX     r7,r4,#1,#1
        0x08001be4:    eb0c0787    ....    ADD      r7,r12,r7,LSL #2
        0x08001be8:    fa02f707    ....    LSL      r7,r2,r7
        0x08001bec:    f8d3c004    ....    LDR      r12,[r3,#4]
        0x08001bf0:    ea07060c    ....    AND      r6,r7,r12
        0x08001bf4:    eb010741    ..A.    ADD      r7,r1,r1,LSL #1
        0x08001bf8:    ea4f0cc7    O...    LSL      r12,r7,#3
        0x08001bfc:    f1030710    ....    ADD      r7,r3,#0x10
        0x08001c00:    f857700c    W..p    LDR      r7,[r7,r12]
        0x08001c04:    f0070508    ....    AND      r5,r7,#8
        0x08001c08:    e01b        ..      B        0x8001c42 ; dma_interrupt_flag_get + 586
        0x08001c0a:    eb040744    ..D.    ADD      r7,r4,r4,LSL #1
        0x08001c0e:    ea4f0c47    O.G.    LSL      r12,r7,#1
        0x08001c12:    f3c40740    ..@.    UBFX     r7,r4,#1,#1
        0x08001c16:    eb0c0787    ....    ADD      r7,r12,r7,LSL #2
        0x08001c1a:    fa02f707    ....    LSL      r7,r2,r7
        0x08001c1e:    f8d3c004    ....    LDR      r12,[r3,#4]
        0x08001c22:    ea07060c    ....    AND      r6,r7,r12
        0x08001c26:    eb010741    ..A.    ADD      r7,r1,r1,LSL #1
        0x08001c2a:    ea4f0cc7    O...    LSL      r12,r7,#3
        0x08001c2e:    f1030710    ....    ADD      r7,r3,#0x10
        0x08001c32:    e000        ..      B        0x8001c36 ; dma_interrupt_flag_get + 574
        0x08001c34:    e004        ..      B        0x8001c40 ; dma_interrupt_flag_get + 584
        0x08001c36:    f857700c    W..p    LDR      r7,[r7,r12]
        0x08001c3a:    f0070510    ....    AND      r5,r7,#0x10
        0x08001c3e:    e000        ..      B        0x8001c42 ; dma_interrupt_flag_get + 586
        0x08001c40:    bf00        ..      NOP      
        0x08001c42:    bf00        ..      NOP      
        0x08001c44:    b116        ..      CBZ      r6,0x8001c4c ; dma_interrupt_flag_get + 596
        0x08001c46:    b10d        ..      CBZ      r5,0x8001c4c ; dma_interrupt_flag_get + 596
        0x08001c48:    2001        .       MOVS     r0,#1
        0x08001c4a:    e000        ..      B        0x8001c4e ; dma_interrupt_flag_get + 598
        0x08001c4c:    2000        .       MOVS     r0,#0
        0x08001c4e:    bdf0        ..      POP      {r4-r7,pc}
    i.dma_single_data_mode_init
    dma_single_data_mode_init
        0x08001c50:    b570        p.      PUSH     {r4-r6,lr}
        0x08001c52:    eb010441    ..A.    ADD      r4,r1,r1,LSL #1
        0x08001c56:    00e5        ..      LSLS     r5,r4,#3
        0x08001c58:    f1000424    ..$.    ADD      r4,r0,#0x24
        0x08001c5c:    5964        dY      LDR      r4,[r4,r5]
        0x08001c5e:    f0240504    $...    BIC      r5,r4,#4
        0x08001c62:    eb010441    ..A.    ADD      r4,r1,r1,LSL #1
        0x08001c66:    00e6        ..      LSLS     r6,r4,#3
        0x08001c68:    f1000424    ..$.    ADD      r4,r0,#0x24
        0x08001c6c:    51a5        .Q      STR      r5,[r4,r6]
        0x08001c6e:    eb010441    ..A.    ADD      r4,r1,r1,LSL #1
        0x08001c72:    00e6        ..      LSLS     r6,r4,#3
        0x08001c74:    f1000418    ....    ADD      r4,r0,#0x18
        0x08001c78:    6815        .h      LDR      r5,[r2,#0]
        0x08001c7a:    51a5        .Q      STR      r5,[r4,r6]
        0x08001c7c:    eb010441    ..A.    ADD      r4,r1,r1,LSL #1
        0x08001c80:    00e6        ..      LSLS     r6,r4,#3
        0x08001c82:    f100041c    ....    ADD      r4,r0,#0x1c
        0x08001c86:    6895        .h      LDR      r5,[r2,#8]
        0x08001c88:    51a5        .Q      STR      r5,[r4,r6]
        0x08001c8a:    eb010441    ..A.    ADD      r4,r1,r1,LSL #1
        0x08001c8e:    00e6        ..      LSLS     r6,r4,#3
        0x08001c90:    f1000414    ....    ADD      r4,r0,#0x14
        0x08001c94:    69d5        .i      LDR      r5,[r2,#0x1c]
        0x08001c96:    51a5        .Q      STR      r5,[r4,r6]
        0x08001c98:    eb010441    ..A.    ADD      r4,r1,r1,LSL #1
        0x08001c9c:    00e5        ..      LSLS     r5,r4,#3
        0x08001c9e:    f1000410    ....    ADD      r4,r0,#0x10
        0x08001ca2:    5963        cY      LDR      r3,[r4,r5]
        0x08001ca4:    4c3f        ?L      LDR      r4,[pc,#252] ; [0x8001da4] = 0xfffc873f
        0x08001ca6:    4023        #@      ANDS     r3,r3,r4
        0x08001ca8:    6914        .i      LDR      r4,[r2,#0x10]
        0x08001caa:    ea440484    D...    ORR      r4,r4,r4,LSL #2
        0x08001cae:    6a15        .j      LDR      r5,[r2,#0x20]
        0x08001cb0:    432c        ,C      ORRS     r4,r4,r5
        0x08001cb2:    6995        .i      LDR      r5,[r2,#0x18]
        0x08001cb4:    432c        ,C      ORRS     r4,r4,r5
        0x08001cb6:    4323        #C      ORRS     r3,r3,r4
        0x08001cb8:    eb010441    ..A.    ADD      r4,r1,r1,LSL #1
        0x08001cbc:    00e5        ..      LSLS     r5,r4,#3
        0x08001cbe:    f1000410    ....    ADD      r4,r0,#0x10
        0x08001cc2:    5163        cQ      STR      r3,[r4,r5]
        0x08001cc4:    6854        Th      LDR      r4,[r2,#4]
        0x08001cc6:    b974        t.      CBNZ     r4,0x8001ce6 ; dma_single_data_mode_init + 150
        0x08001cc8:    eb010441    ..A.    ADD      r4,r1,r1,LSL #1
        0x08001ccc:    00e5        ..      LSLS     r5,r4,#3
        0x08001cce:    f1000410    ....    ADD      r4,r0,#0x10
        0x08001cd2:    5964        dY      LDR      r4,[r4,r5]
        0x08001cd4:    f4447500    D..u    ORR      r5,r4,#0x200
        0x08001cd8:    eb010441    ..A.    ADD      r4,r1,r1,LSL #1
        0x08001cdc:    00e6        ..      LSLS     r6,r4,#3
        0x08001cde:    f1000410    ....    ADD      r4,r0,#0x10
        0x08001ce2:    51a5        .Q      STR      r5,[r4,r6]
        0x08001ce4:    e01f        ..      B        0x8001d26 ; dma_single_data_mode_init + 214
        0x08001ce6:    6854        Th      LDR      r4,[r2,#4]
        0x08001ce8:    2c01        .,      CMP      r4,#1
        0x08001cea:    d10e        ..      BNE      0x8001d0a ; dma_single_data_mode_init + 186
        0x08001cec:    eb010441    ..A.    ADD      r4,r1,r1,LSL #1
        0x08001cf0:    00e5        ..      LSLS     r5,r4,#3
        0x08001cf2:    f1000410    ....    ADD      r4,r0,#0x10
        0x08001cf6:    5964        dY      LDR      r4,[r4,r5]
        0x08001cf8:    f4247500    $..u    BIC      r5,r4,#0x200
        0x08001cfc:    eb010441    ..A.    ADD      r4,r1,r1,LSL #1
        0x08001d00:    00e6        ..      LSLS     r6,r4,#3
        0x08001d02:    f1000410    ....    ADD      r4,r0,#0x10
        0x08001d06:    51a5        .Q      STR      r5,[r4,r6]
        0x08001d08:    e00d        ..      B        0x8001d26 ; dma_single_data_mode_init + 214
        0x08001d0a:    eb010441    ..A.    ADD      r4,r1,r1,LSL #1
        0x08001d0e:    00e5        ..      LSLS     r5,r4,#3
        0x08001d10:    f1000410    ....    ADD      r4,r0,#0x10
        0x08001d14:    5964        dY      LDR      r4,[r4,r5]
        0x08001d16:    f4444500    D..E    ORR      r5,r4,#0x8000
        0x08001d1a:    eb010441    ..A.    ADD      r4,r1,r1,LSL #1
        0x08001d1e:    00e6        ..      LSLS     r6,r4,#3
        0x08001d20:    f1000410    ....    ADD      r4,r0,#0x10
        0x08001d24:    51a5        .Q      STR      r5,[r4,r6]
        0x08001d26:    68d4        .h      LDR      r4,[r2,#0xc]
        0x08001d28:    b974        t.      CBNZ     r4,0x8001d48 ; dma_single_data_mode_init + 248
        0x08001d2a:    eb010441    ..A.    ADD      r4,r1,r1,LSL #1
        0x08001d2e:    00e5        ..      LSLS     r5,r4,#3
        0x08001d30:    f1000410    ....    ADD      r4,r0,#0x10
        0x08001d34:    5964        dY      LDR      r4,[r4,r5]
        0x08001d36:    f4446580    D..e    ORR      r5,r4,#0x400
        0x08001d3a:    eb010441    ..A.    ADD      r4,r1,r1,LSL #1
        0x08001d3e:    00e6        ..      LSLS     r6,r4,#3
        0x08001d40:    f1000410    ....    ADD      r4,r0,#0x10
        0x08001d44:    51a5        .Q      STR      r5,[r4,r6]
        0x08001d46:    e00d        ..      B        0x8001d64 ; dma_single_data_mode_init + 276
        0x08001d48:    eb010441    ..A.    ADD      r4,r1,r1,LSL #1
        0x08001d4c:    00e5        ..      LSLS     r5,r4,#3
        0x08001d4e:    f1000410    ....    ADD      r4,r0,#0x10
        0x08001d52:    5964        dY      LDR      r4,[r4,r5]
        0x08001d54:    f4246580    $..e    BIC      r5,r4,#0x400
        0x08001d58:    eb010441    ..A.    ADD      r4,r1,r1,LSL #1
        0x08001d5c:    00e6        ..      LSLS     r6,r4,#3
        0x08001d5e:    f1000410    ....    ADD      r4,r0,#0x10
        0x08001d62:    51a5        .Q      STR      r5,[r4,r6]
        0x08001d64:    6954        Ti      LDR      r4,[r2,#0x14]
        0x08001d66:    b974        t.      CBNZ     r4,0x8001d86 ; dma_single_data_mode_init + 310
        0x08001d68:    eb010441    ..A.    ADD      r4,r1,r1,LSL #1
        0x08001d6c:    00e5        ..      LSLS     r5,r4,#3
        0x08001d6e:    f1000410    ....    ADD      r4,r0,#0x10
        0x08001d72:    5964        dY      LDR      r4,[r4,r5]
        0x08001d74:    f4447580    D..u    ORR      r5,r4,#0x100
        0x08001d78:    eb010441    ..A.    ADD      r4,r1,r1,LSL #1
        0x08001d7c:    00e6        ..      LSLS     r6,r4,#3
        0x08001d7e:    f1000410    ....    ADD      r4,r0,#0x10
        0x08001d82:    51a5        .Q      STR      r5,[r4,r6]
        0x08001d84:    e00d        ..      B        0x8001da2 ; dma_single_data_mode_init + 338
        0x08001d86:    eb010441    ..A.    ADD      r4,r1,r1,LSL #1
        0x08001d8a:    00e5        ..      LSLS     r5,r4,#3
        0x08001d8c:    f1000410    ....    ADD      r4,r0,#0x10
        0x08001d90:    5964        dY      LDR      r4,[r4,r5]
        0x08001d92:    f4247580    $..u    BIC      r5,r4,#0x100
        0x08001d96:    eb010441    ..A.    ADD      r4,r1,r1,LSL #1
        0x08001d9a:    00e6        ..      LSLS     r6,r4,#3
        0x08001d9c:    f1000410    ....    ADD      r4,r0,#0x10
        0x08001da0:    51a5        .Q      STR      r5,[r4,r6]
        0x08001da2:    bd70        p.      POP      {r4-r6,pc}
    $d
        0x08001da4:    fffc873f    ?...    DCD    4294739775
    $t
    i.dma_transfer_number_config
    dma_transfer_number_config
        0x08001da8:    b510        ..      PUSH     {r4,lr}
        0x08001daa:    eb010341    ..A.    ADD      r3,r1,r1,LSL #1
        0x08001dae:    00dc        ..      LSLS     r4,r3,#3
        0x08001db0:    f1000314    ....    ADD      r3,r0,#0x14
        0x08001db4:    511a        .Q      STR      r2,[r3,r4]
        0x08001db6:    bd10        ..      POP      {r4,pc}
    i.fmc_flag_clear
    fmc_flag_clear
        0x08001db8:    4901        .I      LDR      r1,[pc,#4] ; [0x8001dc0] = 0x40023c0c
        0x08001dba:    6008        .`      STR      r0,[r1,#0]
        0x08001dbc:    4770        pG      BX       lr
    $d
        0x08001dbe:    0000        ..      DCW    0
        0x08001dc0:    40023c0c    .<.@    DCD    1073888268
    $t
    i.fmc_lock
    fmc_lock
        0x08001dc4:    4803        .H      LDR      r0,[pc,#12] ; [0x8001dd4] = 0x40023c10
        0x08001dc6:    6800        .h      LDR      r0,[r0,#0]
        0x08001dc8:    f0404000    @..@    ORR      r0,r0,#0x80000000
        0x08001dcc:    4901        .I      LDR      r1,[pc,#4] ; [0x8001dd4] = 0x40023c10
        0x08001dce:    6008        .`      STR      r0,[r1,#0]
        0x08001dd0:    4770        pG      BX       lr
    $d
        0x08001dd2:    0000        ..      DCW    0
        0x08001dd4:    40023c10    .<.@    DCD    1073888272
    $t
    i.fmc_ready_wait
    fmc_ready_wait
        0x08001dd8:    b510        ..      PUSH     {r4,lr}
        0x08001dda:    4603        .F      MOV      r3,r0
        0x08001ddc:    2401        .$      MOVS     r4,#1
        0x08001dde:    bf00        ..      NOP      
        0x08001de0:    f000f83a    ..:.    BL       fmc_state_get ; 0x8001e58
        0x08001de4:    4604        .F      MOV      r4,r0
        0x08001de6:    1e5b        [.      SUBS     r3,r3,#1
        0x08001de8:    2c01        .,      CMP      r4,#1
        0x08001dea:    d101        ..      BNE      0x8001df0 ; fmc_ready_wait + 24
        0x08001dec:    2b00        .+      CMP      r3,#0
        0x08001dee:    d1f7        ..      BNE      0x8001de0 ; fmc_ready_wait + 8
        0x08001df0:    b903        ..      CBNZ     r3,0x8001df4 ; fmc_ready_wait + 28
        0x08001df2:    2407        .$      MOVS     r4,#7
        0x08001df4:    4620         F      MOV      r0,r4
        0x08001df6:    bd10        ..      POP      {r4,pc}
    i.fmc_sector_erase
    fmc_sector_erase
        0x08001df8:    b530        0.      PUSH     {r4,r5,lr}
        0x08001dfa:    4604        .F      MOV      r4,r0
        0x08001dfc:    2500        .%      MOVS     r5,#0
        0x08001dfe:    f06f4030    o.0@    MVN      r0,#0xb0000000
        0x08001e02:    f7ffffe9    ....    BL       fmc_ready_wait ; 0x8001dd8
        0x08001e06:    4605        .F      MOV      r5,r0
        0x08001e08:    bb0d        ..      CBNZ     r5,0x8001e4e ; fmc_sector_erase + 86
        0x08001e0a:    4812        .H      LDR      r0,[pc,#72] ; [0x8001e54] = 0x40023c10
        0x08001e0c:    6800        .h      LDR      r0,[r0,#0]
        0x08001e0e:    f02000f8     ...    BIC      r0,r0,#0xf8
        0x08001e12:    4910        .I      LDR      r1,[pc,#64] ; [0x8001e54] = 0x40023c10
        0x08001e14:    6008        .`      STR      r0,[r1,#0]
        0x08001e16:    4608        .F      MOV      r0,r1
        0x08001e18:    6800        .h      LDR      r0,[r0,#0]
        0x08001e1a:    f0440102    D...    ORR      r1,r4,#2
        0x08001e1e:    4308        .C      ORRS     r0,r0,r1
        0x08001e20:    490c        .I      LDR      r1,[pc,#48] ; [0x8001e54] = 0x40023c10
        0x08001e22:    6008        .`      STR      r0,[r1,#0]
        0x08001e24:    4608        .F      MOV      r0,r1
        0x08001e26:    6800        .h      LDR      r0,[r0,#0]
        0x08001e28:    f4403080    @..0    ORR      r0,r0,#0x10000
        0x08001e2c:    6008        .`      STR      r0,[r1,#0]
        0x08001e2e:    f06f4030    o.0@    MVN      r0,#0xb0000000
        0x08001e32:    f7ffffd1    ....    BL       fmc_ready_wait ; 0x8001dd8
        0x08001e36:    4605        .F      MOV      r5,r0
        0x08001e38:    4806        .H      LDR      r0,[pc,#24] ; [0x8001e54] = 0x40023c10
        0x08001e3a:    6800        .h      LDR      r0,[r0,#0]
        0x08001e3c:    f0200002     ...    BIC      r0,r0,#2
        0x08001e40:    4904        .I      LDR      r1,[pc,#16] ; [0x8001e54] = 0x40023c10
        0x08001e42:    6008        .`      STR      r0,[r1,#0]
        0x08001e44:    4608        .F      MOV      r0,r1
        0x08001e46:    6800        .h      LDR      r0,[r0,#0]
        0x08001e48:    f02000f8     ...    BIC      r0,r0,#0xf8
        0x08001e4c:    6008        .`      STR      r0,[r1,#0]
        0x08001e4e:    4628        (F      MOV      r0,r5
        0x08001e50:    bd30        0.      POP      {r4,r5,pc}
    $d
        0x08001e52:    0000        ..      DCW    0
        0x08001e54:    40023c10    .<.@    DCD    1073888272
    $t
    i.fmc_state_get
    fmc_state_get
        0x08001e58:    2000        .       MOVS     r0,#0
        0x08001e5a:    4a11        .J      LDR      r2,[pc,#68] ; [0x8001ea0] = 0x40023c0c
        0x08001e5c:    6811        .h      LDR      r1,[r2,#0]
        0x08001e5e:    f4013280    ...2    AND      r2,r1,#0x10000
        0x08001e62:    b10a        ..      CBZ      r2,0x8001e68 ; fmc_state_get + 16
        0x08001e64:    2001        .       MOVS     r0,#1
        0x08001e66:    e019        ..      B        0x8001e9c ; fmc_state_get + 68
        0x08001e68:    f4017280    ...r    AND      r2,r1,#0x100
        0x08001e6c:    b10a        ..      CBZ      r2,0x8001e72 ; fmc_state_get + 26
        0x08001e6e:    2002        .       MOVS     r0,#2
        0x08001e70:    e014        ..      B        0x8001e9c ; fmc_state_get + 68
        0x08001e72:    f0010280    ....    AND      r2,r1,#0x80
        0x08001e76:    b10a        ..      CBZ      r2,0x8001e7c ; fmc_state_get + 36
        0x08001e78:    2003        .       MOVS     r0,#3
        0x08001e7a:    e00f        ..      B        0x8001e9c ; fmc_state_get + 68
        0x08001e7c:    f0010240    ..@.    AND      r2,r1,#0x40
        0x08001e80:    b10a        ..      CBZ      r2,0x8001e86 ; fmc_state_get + 46
        0x08001e82:    2004        .       MOVS     r0,#4
        0x08001e84:    e00a        ..      B        0x8001e9c ; fmc_state_get + 68
        0x08001e86:    f0010210    ....    AND      r2,r1,#0x10
        0x08001e8a:    b10a        ..      CBZ      r2,0x8001e90 ; fmc_state_get + 56
        0x08001e8c:    2005        .       MOVS     r0,#5
        0x08001e8e:    e005        ..      B        0x8001e9c ; fmc_state_get + 68
        0x08001e90:    f0010202    ....    AND      r2,r1,#2
        0x08001e94:    b10a        ..      CBZ      r2,0x8001e9a ; fmc_state_get + 66
        0x08001e96:    2006        .       MOVS     r0,#6
        0x08001e98:    e000        ..      B        0x8001e9c ; fmc_state_get + 68
        0x08001e9a:    2000        .       MOVS     r0,#0
        0x08001e9c:    4770        pG      BX       lr
    $d
        0x08001e9e:    0000        ..      DCW    0
        0x08001ea0:    40023c0c    .<.@    DCD    1073888268
    $t
    i.fmc_unlock
    fmc_unlock
        0x08001ea4:    4805        .H      LDR      r0,[pc,#20] ; [0x8001ebc] = 0x40023c10
        0x08001ea6:    6800        .h      LDR      r0,[r0,#0]
        0x08001ea8:    f0004000    ...@    AND      r0,r0,#0x80000000
        0x08001eac:    b128        (.      CBZ      r0,0x8001eba ; fmc_unlock + 22
        0x08001eae:    4804        .H      LDR      r0,[pc,#16] ; [0x8001ec0] = 0x45670123
        0x08001eb0:    4902        .I      LDR      r1,[pc,#8] ; [0x8001ebc] = 0x40023c10
        0x08001eb2:    390c        .9      SUBS     r1,r1,#0xc
        0x08001eb4:    6008        .`      STR      r0,[r1,#0]
        0x08001eb6:    4803        .H      LDR      r0,[pc,#12] ; [0x8001ec4] = 0xcdef89ab
        0x08001eb8:    6008        .`      STR      r0,[r1,#0]
        0x08001eba:    4770        pG      BX       lr
    $d
        0x08001ebc:    40023c10    .<.@    DCD    1073888272
        0x08001ec0:    45670123    #.gE    DCD    1164378403
        0x08001ec4:    cdef89ab    ....    DCD    3455027627
    $t
    i.fmc_word_program
    fmc_word_program
        0x08001ec8:    b570        p.      PUSH     {r4-r6,lr}
        0x08001eca:    4604        .F      MOV      r4,r0
        0x08001ecc:    460d        .F      MOV      r5,r1
        0x08001ece:    2600        .&      MOVS     r6,#0
        0x08001ed0:    f06f4030    o.0@    MVN      r0,#0xb0000000
        0x08001ed4:    f7ffff80    ....    BL       fmc_ready_wait ; 0x8001dd8
        0x08001ed8:    4606        .F      MOV      r6,r0
        0x08001eda:    b9de        ..      CBNZ     r6,0x8001f14 ; fmc_word_program + 76
        0x08001edc:    480e        .H      LDR      r0,[pc,#56] ; [0x8001f18] = 0x40023c10
        0x08001ede:    6800        .h      LDR      r0,[r0,#0]
        0x08001ee0:    f4207040     .@p    BIC      r0,r0,#0x300
        0x08001ee4:    490c        .I      LDR      r1,[pc,#48] ; [0x8001f18] = 0x40023c10
        0x08001ee6:    6008        .`      STR      r0,[r1,#0]
        0x08001ee8:    4608        .F      MOV      r0,r1
        0x08001eea:    6800        .h      LDR      r0,[r0,#0]
        0x08001eec:    f4407000    @..p    ORR      r0,r0,#0x200
        0x08001ef0:    6008        .`      STR      r0,[r1,#0]
        0x08001ef2:    4608        .F      MOV      r0,r1
        0x08001ef4:    6800        .h      LDR      r0,[r0,#0]
        0x08001ef6:    f0400001    @...    ORR      r0,r0,#1
        0x08001efa:    6008        .`      STR      r0,[r1,#0]
        0x08001efc:    6025        %`      STR      r5,[r4,#0]
        0x08001efe:    f06f4030    o.0@    MVN      r0,#0xb0000000
        0x08001f02:    f7ffff69    ..i.    BL       fmc_ready_wait ; 0x8001dd8
        0x08001f06:    4606        .F      MOV      r6,r0
        0x08001f08:    4803        .H      LDR      r0,[pc,#12] ; [0x8001f18] = 0x40023c10
        0x08001f0a:    6800        .h      LDR      r0,[r0,#0]
        0x08001f0c:    f0200001     ...    BIC      r0,r0,#1
        0x08001f10:    4901        .I      LDR      r1,[pc,#4] ; [0x8001f18] = 0x40023c10
        0x08001f12:    6008        .`      STR      r0,[r1,#0]
        0x08001f14:    4630        0F      MOV      r0,r6
        0x08001f16:    bd70        p.      POP      {r4-r6,pc}
    $d
        0x08001f18:    40023c10    .<.@    DCD    1073888272
    $t
    i.fputc
    fputc
        0x08001f1c:    b570        p.      PUSH     {r4-r6,lr}
        0x08001f1e:    4604        .F      MOV      r4,r0
        0x08001f20:    460d        .F      MOV      r5,r1
        0x08001f22:    b2e1        ..      UXTB     r1,r4
        0x08001f24:    4805        .H      LDR      r0,[pc,#20] ; [0x8001f3c] = 0x40011000
        0x08001f26:    f001fc17    ....    BL       usart_data_transmit ; 0x8003758
        0x08001f2a:    bf00        ..      NOP      
        0x08001f2c:    2107        .!      MOVS     r1,#7
        0x08001f2e:    4803        .H      LDR      r0,[pc,#12] ; [0x8001f3c] = 0x40011000
        0x08001f30:    f001fc89    ....    BL       usart_flag_get ; 0x8003846
        0x08001f34:    2800        .(      CMP      r0,#0
        0x08001f36:    d0f9        ..      BEQ      0x8001f2c ; fputc + 16
        0x08001f38:    4620         F      MOV      r0,r4
        0x08001f3a:    bd70        p.      POP      {r4-r6,pc}
    $d
        0x08001f3c:    40011000    ...@    DCD    1073811456
    $t
    i.gd32f4xx_firmware_version_get
    gd32f4xx_firmware_version_get
        0x08001f40:    4800        .H      LDR      r0,[pc,#0] ; [0x8001f44] = 0x3030300
        0x08001f42:    4770        pG      BX       lr
    $d
        0x08001f44:    03030300    ....    DCD    50529024
    $t
    i.gpio_af_set
    gpio_af_set
        0x08001f48:    b5f0        ..      PUSH     {r4-r7,lr}
        0x08001f4a:    4603        .F      MOV      r3,r0
        0x08001f4c:    6a1c        .j      LDR      r4,[r3,#0x20]
        0x08001f4e:    6a5d        ]j      LDR      r5,[r3,#0x24]
        0x08001f50:    2000        .       MOVS     r0,#0
        0x08001f52:    e00d        ..      B        0x8001f70 ; gpio_af_set + 40
        0x08001f54:    2601        .&      MOVS     r6,#1
        0x08001f56:    4086        .@      LSLS     r6,r6,r0
        0x08001f58:    4016        .@      ANDS     r6,r6,r2
        0x08001f5a:    b13e        >.      CBZ      r6,0x8001f6c ; gpio_af_set + 36
        0x08001f5c:    0087        ..      LSLS     r7,r0,#2
        0x08001f5e:    260f        .&      MOVS     r6,#0xf
        0x08001f60:    40be        .@      LSLS     r6,r6,r7
        0x08001f62:    43b4        .C      BICS     r4,r4,r6
        0x08001f64:    0086        ..      LSLS     r6,r0,#2
        0x08001f66:    fa01f606    ....    LSL      r6,r1,r6
        0x08001f6a:    4334        4C      ORRS     r4,r4,r6
        0x08001f6c:    1c46        F.      ADDS     r6,r0,#1
        0x08001f6e:    b2b0        ..      UXTH     r0,r6
        0x08001f70:    2808        .(      CMP      r0,#8
        0x08001f72:    d3ef        ..      BCC      0x8001f54 ; gpio_af_set + 12
        0x08001f74:    2008        .       MOVS     r0,#8
        0x08001f76:    e011        ..      B        0x8001f9c ; gpio_af_set + 84
        0x08001f78:    2601        .&      MOVS     r6,#1
        0x08001f7a:    4086        .@      LSLS     r6,r6,r0
        0x08001f7c:    4016        .@      ANDS     r6,r6,r2
        0x08001f7e:    b15e        ^.      CBZ      r6,0x8001f98 ; gpio_af_set + 80
        0x08001f80:    f1a00608    ....    SUB      r6,r0,#8
        0x08001f84:    00b7        ..      LSLS     r7,r6,#2
        0x08001f86:    260f        .&      MOVS     r6,#0xf
        0x08001f88:    40be        .@      LSLS     r6,r6,r7
        0x08001f8a:    43b5        .C      BICS     r5,r5,r6
        0x08001f8c:    f1a00608    ....    SUB      r6,r0,#8
        0x08001f90:    00b6        ..      LSLS     r6,r6,#2
        0x08001f92:    fa01f606    ....    LSL      r6,r1,r6
        0x08001f96:    4335        5C      ORRS     r5,r5,r6
        0x08001f98:    1c46        F.      ADDS     r6,r0,#1
        0x08001f9a:    b2b0        ..      UXTH     r0,r6
        0x08001f9c:    2810        .(      CMP      r0,#0x10
        0x08001f9e:    d3eb        ..      BCC      0x8001f78 ; gpio_af_set + 48
        0x08001fa0:    621c        .b      STR      r4,[r3,#0x20]
        0x08001fa2:    625d        ]b      STR      r5,[r3,#0x24]
        0x08001fa4:    bdf0        ..      POP      {r4-r7,pc}
    i.gpio_bit_reset
    gpio_bit_reset
        0x08001fa6:    6281        .b      STR      r1,[r0,#0x28]
        0x08001fa8:    4770        pG      BX       lr
    i.gpio_bit_set
    gpio_bit_set
        0x08001faa:    6181        .a      STR      r1,[r0,#0x18]
        0x08001fac:    4770        pG      BX       lr
    i.gpio_input_bit_get
    gpio_input_bit_get
        0x08001fae:    4602        .F      MOV      r2,r0
        0x08001fb0:    2000        .       MOVS     r0,#0
        0x08001fb2:    6913        .i      LDR      r3,[r2,#0x10]
        0x08001fb4:    400b        .@      ANDS     r3,r3,r1
        0x08001fb6:    b10b        ..      CBZ      r3,0x8001fbc ; gpio_input_bit_get + 14
        0x08001fb8:    2001        .       MOVS     r0,#1
        0x08001fba:    e000        ..      B        0x8001fbe ; gpio_input_bit_get + 16
        0x08001fbc:    2000        .       MOVS     r0,#0
        0x08001fbe:    4770        pG      BX       lr
    i.gpio_mode_set
    gpio_mode_set
        0x08001fc0:    b5f0        ..      PUSH     {r4-r7,lr}
        0x08001fc2:    4604        .F      MOV      r4,r0
        0x08001fc4:    460d        .F      MOV      r5,r1
        0x08001fc6:    4616        .F      MOV      r6,r2
        0x08001fc8:    6821        !h      LDR      r1,[r4,#0]
        0x08001fca:    68e2        .h      LDR      r2,[r4,#0xc]
        0x08001fcc:    2000        .       MOVS     r0,#0
        0x08001fce:    e019        ..      B        0x8002004 ; gpio_mode_set + 68
        0x08001fd0:    2701        .'      MOVS     r7,#1
        0x08001fd2:    4087        .@      LSLS     r7,r7,r0
        0x08001fd4:    401f        .@      ANDS     r7,r7,r3
        0x08001fd6:    b19f        ..      CBZ      r7,0x8002000 ; gpio_mode_set + 64
        0x08001fd8:    ea4f0c40    O.@.    LSL      r12,r0,#1
        0x08001fdc:    2703        .'      MOVS     r7,#3
        0x08001fde:    fa07f70c    ....    LSL      r7,r7,r12
        0x08001fe2:    43b9        .C      BICS     r1,r1,r7
        0x08001fe4:    0047        G.      LSLS     r7,r0,#1
        0x08001fe6:    fa05f707    ....    LSL      r7,r5,r7
        0x08001fea:    4339        9C      ORRS     r1,r1,r7
        0x08001fec:    ea4f0c40    O.@.    LSL      r12,r0,#1
        0x08001ff0:    2703        .'      MOVS     r7,#3
        0x08001ff2:    fa07f70c    ....    LSL      r7,r7,r12
        0x08001ff6:    43ba        .C      BICS     r2,r2,r7
        0x08001ff8:    0047        G.      LSLS     r7,r0,#1
        0x08001ffa:    fa06f707    ....    LSL      r7,r6,r7
        0x08001ffe:    433a        :C      ORRS     r2,r2,r7
        0x08002000:    1c47        G.      ADDS     r7,r0,#1
        0x08002002:    b2b8        ..      UXTH     r0,r7
        0x08002004:    2810        .(      CMP      r0,#0x10
        0x08002006:    d3e3        ..      BCC      0x8001fd0 ; gpio_mode_set + 16
        0x08002008:    6021        !`      STR      r1,[r4,#0]
        0x0800200a:    60e2        .`      STR      r2,[r4,#0xc]
        0x0800200c:    bdf0        ..      POP      {r4-r7,pc}
    i.gpio_output_options_set
    gpio_output_options_set
        0x0800200e:    b5f0        ..      PUSH     {r4-r7,lr}
        0x08002010:    460c        .F      MOV      r4,r1
        0x08002012:    4615        .F      MOV      r5,r2
        0x08002014:    2c01        .,      CMP      r4,#1
        0x08002016:    d103        ..      BNE      0x8002020 ; gpio_output_options_set + 18
        0x08002018:    6846        Fh      LDR      r6,[r0,#4]
        0x0800201a:    431e        .C      ORRS     r6,r6,r3
        0x0800201c:    6046        F`      STR      r6,[r0,#4]
        0x0800201e:    e002        ..      B        0x8002026 ; gpio_output_options_set + 24
        0x08002020:    6846        Fh      LDR      r6,[r0,#4]
        0x08002022:    439e        .C      BICS     r6,r6,r3
        0x08002024:    6046        F`      STR      r6,[r0,#4]
        0x08002026:    6882        .h      LDR      r2,[r0,#8]
        0x08002028:    2100        .!      MOVS     r1,#0
        0x0800202a:    e00d        ..      B        0x8002048 ; gpio_output_options_set + 58
        0x0800202c:    2601        .&      MOVS     r6,#1
        0x0800202e:    408e        .@      LSLS     r6,r6,r1
        0x08002030:    401e        .@      ANDS     r6,r6,r3
        0x08002032:    b13e        >.      CBZ      r6,0x8002044 ; gpio_output_options_set + 54
        0x08002034:    004f        O.      LSLS     r7,r1,#1
        0x08002036:    2603        .&      MOVS     r6,#3
        0x08002038:    40be        .@      LSLS     r6,r6,r7
        0x0800203a:    43b2        .C      BICS     r2,r2,r6
        0x0800203c:    004e        N.      LSLS     r6,r1,#1
        0x0800203e:    fa05f606    ....    LSL      r6,r5,r6
        0x08002042:    4332        2C      ORRS     r2,r2,r6
        0x08002044:    1c4e        N.      ADDS     r6,r1,#1
        0x08002046:    b2b1        ..      UXTH     r1,r6
        0x08002048:    2910        .)      CMP      r1,#0x10
        0x0800204a:    d3ef        ..      BCC      0x800202c ; gpio_output_options_set + 30
        0x0800204c:    6082        .`      STR      r2,[r0,#8]
        0x0800204e:    bdf0        ..      POP      {r4-r7,pc}
    i.iap_load_app
    iap_load_app
        0x08002050:    b570        p.      PUSH     {r4-r6,lr}
        0x08002052:    4604        .F      MOV      r4,r0
        0x08002054:    6825        %h      LDR      r5,[r4,#0]
        0x08002056:    4629        )F      MOV      r1,r5
        0x08002058:    a009        ..      ADR      r0,{pc}+0x28 ; 0x8002080
        0x0800205a:    f7fefca7    ....    BL       __0printf$8 ; 0x80009ac
        0x0800205e:    6820         h      LDR      r0,[r4,#0]
        0x08002060:    490d        .I      LDR      r1,[pc,#52] ; [0x8002098] = 0x2ff00000
        0x08002062:    4008        .@      ANDS     r0,r0,r1
        0x08002064:    f1b05f00    ..._    CMP      r0,#0x20000000
        0x08002068:    d108        ..      BNE      0x800207c ; iap_load_app + 44
        0x0800206a:    6860        `h      LDR      r0,[r4,#4]
        0x0800206c:    490b        .I      LDR      r1,[pc,#44] ; [0x800209c] = 0x2000000c
        0x0800206e:    6008        .`      STR      r0,[r1,#0]
        0x08002070:    6820         h      LDR      r0,[r4,#0]
        0x08002072:    f001f828    ..(.    BL       sys_msr_msp ; 0x80030c6
        0x08002076:    4809        .H      LDR      r0,[pc,#36] ; [0x800209c] = 0x2000000c
        0x08002078:    6800        .h      LDR      r0,[r0,#0]
        0x0800207a:    4780        .G      BLX      r0
        0x0800207c:    bd70        p.      POP      {r4-r6,pc}
    $d
        0x0800207e:    0000        ..      DCW    0
        0x08002080:    e988a0e6    ....    DCD    3918045414
        0x08002084:    9ce5b6a1    ....    DCD    2632300193
        0x08002088:    809de5b0    ....    DCD    2157831600
        0x0800208c:    30203d20     = 0    DCD    807419168
        0x08002090:    38302578    x%08    DCD    942679416
        0x08002094:    000a0d58    X...    DCD    658776
        0x08002098:    2ff00000    .../    DCD    804257792
        0x0800209c:    2000000c    ...     DCD    536870924
    $t
    i.iap_write_appbin
    iap_write_appbin
        0x080020a0:    e92d5fff    -.._    PUSH     {r0-r12,lr}
        0x080020a4:    4606        .F      MOV      r6,r0
        0x080020a6:    460f        .F      MOV      r7,r1
        0x080020a8:    4690        .F      MOV      r8,r2
        0x080020aa:    2500        .%      MOVS     r5,#0
        0x080020ac:    46b3        .F      MOV      r11,r6
        0x080020ae:    463c        <F      MOV      r4,r7
        0x080020b0:    46a9        .F      MOV      r9,r5
        0x080020b2:    e025        %.      B        0x8002100 ; iap_write_appbin + 96
        0x080020b4:    7820         x      LDRB     r0,[r4,#0]
        0x080020b6:    9000        ..      STR      r0,[sp,#0]
        0x080020b8:    7860        `x      LDRB     r0,[r4,#1]
        0x080020ba:    9001        ..      STR      r0,[sp,#4]
        0x080020bc:    78a0        .x      LDRB     r0,[r4,#2]
        0x080020be:    9002        ..      STR      r0,[sp,#8]
        0x080020c0:    78e0        .x      LDRB     r0,[r4,#3]
        0x080020c2:    9003        ..      STR      r0,[sp,#0xc]
        0x080020c4:    e9dd0100    ....    LDRD     r0,r1,[sp,#0]
        0x080020c8:    ea402001    @..     ORR      r0,r0,r1,LSL #8
        0x080020cc:    9902        ..      LDR      r1,[sp,#8]
        0x080020ce:    ea404001    @..@    ORR      r0,r0,r1,LSL #16
        0x080020d2:    9903        ..      LDR      r1,[sp,#0xc]
        0x080020d4:    ea406a01    @..j    ORR      r10,r0,r1,LSL #24
        0x080020d8:    1d24        $.      ADDS     r4,r4,#4
        0x080020da:    4628        (F      MOV      r0,r5
        0x080020dc:    1c69        i.      ADDS     r1,r5,#1
        0x080020de:    b28d        ..      UXTH     r5,r1
        0x080020e0:    490c        .I      LDR      r1,[pc,#48] ; [0x8002114] = 0x20000044
        0x080020e2:    f841a020    A. .    STR      r10,[r1,r0,LSL #2]
        0x080020e6:    2d80        .-      CMP      r5,#0x80
        0x080020e8:    d106        ..      BNE      0x80020f8 ; iap_write_appbin + 88
        0x080020ea:    2500        .%      MOVS     r5,#0
        0x080020ec:    2280        ."      MOVS     r2,#0x80
        0x080020ee:    4658        XF      MOV      r0,r11
        0x080020f0:    f7fffabc    ....    BL       bsp_WriteCpuFlash ; 0x800166c
        0x080020f4:    f50b7b00    ...{    ADD      r11,r11,#0x200
        0x080020f8:    f1090004    ....    ADD      r0,r9,#4
        0x080020fc:    fa1ff980    ....    UXTH     r9,r0
        0x08002100:    45c1        .E      CMP      r9,r8
        0x08002102:    d3d7        ..      BCC      0x80020b4 ; iap_write_appbin + 20
        0x08002104:    b125        %.      CBZ      r5,0x8002110 ; iap_write_appbin + 112
        0x08002106:    462a        *F      MOV      r2,r5
        0x08002108:    4902        .I      LDR      r1,[pc,#8] ; [0x8002114] = 0x20000044
        0x0800210a:    4658        XF      MOV      r0,r11
        0x0800210c:    f7fffaae    ....    BL       bsp_WriteCpuFlash ; 0x800166c
        0x08002110:    e8bd9fff    ....    POP      {r0-r12,pc}
    $d
        0x08002114:    20000044    D..     DCD    536870980
    $t
    i.led_all_off
    led_all_off
        0x08002118:    b510        ..      PUSH     {r4,lr}
        0x0800211a:    f44f7180    O..q    MOV      r1,#0x100
        0x0800211e:    4806        .H      LDR      r0,[pc,#24] ; [0x8002138] = 0x40020400
        0x08002120:    f7ffff43    ..C.    BL       gpio_bit_set ; 0x8001faa
        0x08002124:    f44f7100    O..q    MOV      r1,#0x200
        0x08002128:    4803        .H      LDR      r0,[pc,#12] ; [0x8002138] = 0x40020400
        0x0800212a:    f7ffff3e    ..>.    BL       gpio_bit_set ; 0x8001faa
        0x0800212e:    2101        .!      MOVS     r1,#1
        0x08002130:    4802        .H      LDR      r0,[pc,#8] ; [0x800213c] = 0x40021000
        0x08002132:    f7ffff3a    ..:.    BL       gpio_bit_set ; 0x8001faa
        0x08002136:    bd10        ..      POP      {r4,pc}
    $d
        0x08002138:    40020400    ...@    DCD    1073873920
        0x0800213c:    40021000    ...@    DCD    1073876992
    $t
    i.led_all_on
    led_all_on
        0x08002140:    b510        ..      PUSH     {r4,lr}
        0x08002142:    f44f7180    O..q    MOV      r1,#0x100
        0x08002146:    4806        .H      LDR      r0,[pc,#24] ; [0x8002160] = 0x40020400
        0x08002148:    f7ffff2d    ..-.    BL       gpio_bit_reset ; 0x8001fa6
        0x0800214c:    f44f7100    O..q    MOV      r1,#0x200
        0x08002150:    4803        .H      LDR      r0,[pc,#12] ; [0x8002160] = 0x40020400
        0x08002152:    f7ffff28    ..(.    BL       gpio_bit_reset ; 0x8001fa6
        0x08002156:    2101        .!      MOVS     r1,#1
        0x08002158:    4802        .H      LDR      r0,[pc,#8] ; [0x8002164] = 0x40021000
        0x0800215a:    f7ffff24    ..$.    BL       gpio_bit_reset ; 0x8001fa6
        0x0800215e:    bd10        ..      POP      {r4,pc}
    $d
        0x08002160:    40020400    ...@    DCD    1073873920
        0x08002164:    40021000    ...@    DCD    1073876992
    $t
    i.led_show_control
    led_show_control
        0x08002168:    b570        p.      PUSH     {r4-r6,lr}
        0x0800216a:    4605        .F      MOV      r5,r0
        0x0800216c:    2064        d       MOVS     r0,#0x64
        0x0800216e:    fb95f1f0    ....    SDIV     r1,r5,r0
        0x08002172:    fb005011    ...P    MLS      r0,r0,r1,r5
        0x08002176:    b2c4        ..      UXTB     r4,r0
        0x08002178:    2c32        2,      CMP      r4,#0x32
        0x0800217a:    da08        ..      BGE      0x800218e ; led_show_control + 38
        0x0800217c:    480a        .H      LDR      r0,[pc,#40] ; [0x80021a8] = 0x20000000
        0x0800217e:    7800        .x      LDRB     r0,[r0,#0]
        0x08002180:    b928        (.      CBNZ     r0,0x800218e ; led_show_control + 38
        0x08002182:    2001        .       MOVS     r0,#1
        0x08002184:    4908        .I      LDR      r1,[pc,#32] ; [0x80021a8] = 0x20000000
        0x08002186:    7008        .p      STRB     r0,[r1,#0]
        0x08002188:    f7ffffda    ....    BL       led_all_on ; 0x8002140
        0x0800218c:    e00a        ..      B        0x80021a4 ; led_show_control + 60
        0x0800218e:    2c32        2,      CMP      r4,#0x32
        0x08002190:    db08        ..      BLT      0x80021a4 ; led_show_control + 60
        0x08002192:    4805        .H      LDR      r0,[pc,#20] ; [0x80021a8] = 0x20000000
        0x08002194:    7800        .x      LDRB     r0,[r0,#0]
        0x08002196:    2801        .(      CMP      r0,#1
        0x08002198:    d104        ..      BNE      0x80021a4 ; led_show_control + 60
        0x0800219a:    2000        .       MOVS     r0,#0
        0x0800219c:    4902        .I      LDR      r1,[pc,#8] ; [0x80021a8] = 0x20000000
        0x0800219e:    7008        .p      STRB     r0,[r1,#0]
        0x080021a0:    f7ffffba    ....    BL       led_all_off ; 0x8002118
        0x080021a4:    bd70        p.      POP      {r4-r6,pc}
    $d
        0x080021a6:    0000        ..      DCW    0
        0x080021a8:    20000000    ...     DCD    536870912
    $t
    i.main
    main
        0x080021ac:    f001f824    ..$.    BL       system_setup_function ; 0x80031f8
        0x080021b0:    f44f717a    O.zq    MOV      r1,#0x3e8
        0x080021b4:    2004        .       MOVS     r0,#4
        0x080021b6:    f7feff4b    ..K.    BL       bsp_InitFwdgt ; 0x8001050
        0x080021ba:    f7fff995    ....    BL       bsp_Init_DWT ; 0x80014e8
        0x080021be:    f7feff49    ..I.    BL       bsp_InitLed ; 0x8001054
        0x080021c2:    f44f30e1    O..0    MOV      r0,#0x1c200
        0x080021c6:    f7fefedf    ....    BL       bsp_InitDebug ; 0x8000f88
        0x080021ca:    2300        .#      MOVS     r3,#0
        0x080021cc:    2206        ."      MOVS     r2,#6
        0x080021ce:    f44f717a    O.zq    MOV      r1,#0x3e8
        0x080021d2:    06c8        ..      LSLS     r0,r1,#27
        0x080021d4:    f7fff896    ....    BL       bsp_InitTimers ; 0x8001304
        0x080021d8:    f7feff9e    ....    BL       bsp_InitSPIBus ; 0x8001118
        0x080021dc:    f7feff82    ....    BL       bsp_InitSFlash ; 0x80010e4
        0x080021e0:    f7fef9b8    ....    BL       PrintfLogo ; 0x8000554
        0x080021e4:    f7fef8da    ....    BL       DeviceRstReason ; 0x800039c
        0x080021e8:    f001f968    ..h.    BL       update_check_function ; 0x80034bc
        0x080021ec:    e006        ..      B        0x80021fc ; main + 80
        0x080021ee:    a004        ..      ADR      r0,{pc}+0x12 ; 0x8002200
        0x080021f0:    f7fefbdc    ....    BL       __0printf$8 ; 0x80009ac
        0x080021f4:    f44f707a    O.zp    MOV      r0,#0x3e8
        0x080021f8:    f7fffb0c    ....    BL       delay_ms ; 0x8001814
        0x080021fc:    e7f7        ..      B        0x80021ee ; main + 66
    $d
        0x080021fe:    0000        ..      DCW    0
        0x08002200:    6f6f620a    .boo    DCD    1869570570
        0x08002204:    616f6c74    tloa    DCD    1634692212
        0x08002208:    20726564    der     DCD    544367972
        0x0800220c:    206e7572    run     DCD    544109938
        0x08002210:    6f727265    erro    DCD    1869771365
        0x08002214:    2e2e2e72    r...    DCD    774778482
        0x08002218:    0000000a    ....    DCD    10
    $t
    i.mem_perused
    mem_perused
        0x0800221c:    b510        ..      PUSH     {r4,lr}
        0x0800221e:    4601        .F      MOV      r1,r0
        0x08002220:    2300        .#      MOVS     r3,#0
        0x08002222:    2200        ."      MOVS     r2,#0
        0x08002224:    e007        ..      B        0x8002236 ; mem_perused + 26
        0x08002226:    480b        .H      LDR      r0,[pc,#44] ; [0x8002254] = 0x20000038
        0x08002228:    f8500021    P.!.    LDR      r0,[r0,r1,LSL #2]
        0x0800222c:    f8300012    0...    LDRH     r0,[r0,r2,LSL #1]
        0x08002230:    b100        ..      CBZ      r0,0x8002234 ; mem_perused + 24
        0x08002232:    1c5b        [.      ADDS     r3,r3,#1
        0x08002234:    1c52        R.      ADDS     r2,r2,#1
        0x08002236:    4808        .H      LDR      r0,[pc,#32] ; [0x8002258] = 0x80038f8
        0x08002238:    f8500021    P.!.    LDR      r0,[r0,r1,LSL #2]
        0x0800223c:    4290        .B      CMP      r0,r2
        0x0800223e:    d8f2        ..      BHI      0x8002226 ; mem_perused + 10
        0x08002240:    2064        d       MOVS     r0,#0x64
        0x08002242:    4358        XC      MULS     r0,r3,r0
        0x08002244:    4c04        .L      LDR      r4,[pc,#16] ; [0x8002258] = 0x80038f8
        0x08002246:    f8544021    T.!@    LDR      r4,[r4,r1,LSL #2]
        0x0800224a:    fbb0f0f4    ....    UDIV     r0,r0,r4
        0x0800224e:    b2c0        ..      UXTB     r0,r0
        0x08002250:    bd10        ..      POP      {r4,pc}
    $d
        0x08002252:    0000        ..      DCW    0
        0x08002254:    20000038    8..     DCD    536870968
        0x08002258:    080038f8    .8..    DCD    134232312
    $t
    i.myfree
    myfree
        0x0800225c:    b570        p.      PUSH     {r4-r6,lr}
        0x0800225e:    4605        .F      MOV      r5,r0
        0x08002260:    460c        .F      MOV      r4,r1
        0x08002262:    b904        ..      CBNZ     r4,0x8002266 ; myfree + 10
        0x08002264:    bd70        p.      POP      {r4-r6,pc}
        0x08002266:    4805        .H      LDR      r0,[pc,#20] ; [0x800227c] = 0x20000034
        0x08002268:    f8500025    P.%.    LDR      r0,[r0,r5,LSL #2]
        0x0800226c:    1a26        &.      SUBS     r6,r4,r0
        0x0800226e:    4631        1F      MOV      r1,r6
        0x08002270:    4628        (F      MOV      r0,r5
        0x08002272:    f000f819    ....    BL       mymem_free ; 0x80022a8
        0x08002276:    bf00        ..      NOP      
        0x08002278:    e7f4        ..      B        0x8002264 ; myfree + 8
    $d
        0x0800227a:    0000        ..      DCW    0
        0x0800227c:    20000034    4..     DCD    536870964
    $t
    i.mymalloc
    mymalloc
        0x08002280:    b570        p.      PUSH     {r4-r6,lr}
        0x08002282:    4604        .F      MOV      r4,r0
        0x08002284:    460e        .F      MOV      r6,r1
        0x08002286:    4631        1F      MOV      r1,r6
        0x08002288:    4620         F      MOV      r0,r4
        0x0800228a:    f000f865    ..e.    BL       mymem_malloc ; 0x8002358
        0x0800228e:    4605        .F      MOV      r5,r0
        0x08002290:    1c68        h.      ADDS     r0,r5,#1
        0x08002292:    b908        ..      CBNZ     r0,0x8002298 ; mymalloc + 24
        0x08002294:    2000        .       MOVS     r0,#0
        0x08002296:    bd70        p.      POP      {r4-r6,pc}
        0x08002298:    4802        .H      LDR      r0,[pc,#8] ; [0x80022a4] = 0x20000034
        0x0800229a:    f8500024    P.$.    LDR      r0,[r0,r4,LSL #2]
        0x0800229e:    4428        (D      ADD      r0,r0,r5
        0x080022a0:    e7f9        ..      B        0x8002296 ; mymalloc + 22
    $d
        0x080022a2:    0000        ..      DCW    0
        0x080022a4:    20000034    4..     DCD    536870964
    $t
    i.mymem_free
    mymem_free
        0x080022a8:    e92d41f0    -..A    PUSH     {r4-r8,lr}
        0x080022ac:    4604        .F      MOV      r4,r0
        0x080022ae:    460e        .F      MOV      r6,r1
        0x080022b0:    4815        .H      LDR      r0,[pc,#84] ; [0x8002308] = 0x2000003c
        0x080022b2:    5d00        .]      LDRB     r0,[r0,r4]
        0x080022b4:    b938        8.      CBNZ     r0,0x80022c6 ; mymem_free + 30
        0x080022b6:    4814        .H      LDR      r0,[pc,#80] ; [0x8002308] = 0x2000003c
        0x080022b8:    3810        .8      SUBS     r0,r0,#0x10
        0x080022ba:    6801        .h      LDR      r1,[r0,#0]
        0x080022bc:    4620         F      MOV      r0,r4
        0x080022be:    4788        .G      BLX      r1
        0x080022c0:    2001        .       MOVS     r0,#1
        0x080022c2:    e8bd81f0    ....    POP      {r4-r8,pc}
        0x080022c6:    4811        .H      LDR      r0,[pc,#68] ; [0x800230c] = 0x8003900
        0x080022c8:    f8500024    P.$.    LDR      r0,[r0,r4,LSL #2]
        0x080022cc:    42b0        .B      CMP      r0,r6
        0x080022ce:    d919        ..      BLS      0x8002304 ; mymem_free + 92
        0x080022d0:    480f        .H      LDR      r0,[pc,#60] ; [0x8002310] = 0x80038fc
        0x080022d2:    f8500024    P.$.    LDR      r0,[r0,r4,LSL #2]
        0x080022d6:    fbb6f1f0    ....    UDIV     r1,r6,r0
        0x080022da:    480b        .H      LDR      r0,[pc,#44] ; [0x8002308] = 0x2000003c
        0x080022dc:    1f00        ..      SUBS     r0,r0,#4
        0x080022de:    f8500024    P.$.    LDR      r0,[r0,r4,LSL #2]
        0x080022e2:    f8302011    0..     LDRH     r2,[r0,r1,LSL #1]
        0x080022e6:    2500        .%      MOVS     r5,#0
        0x080022e8:    e008        ..      B        0x80022fc ; mymem_free + 84
        0x080022ea:    2300        .#      MOVS     r3,#0
        0x080022ec:    4806        .H      LDR      r0,[pc,#24] ; [0x8002308] = 0x2000003c
        0x080022ee:    1f00        ..      SUBS     r0,r0,#4
        0x080022f0:    f8500024    P.$.    LDR      r0,[r0,r4,LSL #2]
        0x080022f4:    194f        O.      ADDS     r7,r1,r5
        0x080022f6:    f8203017     ..0    STRH     r3,[r0,r7,LSL #1]
        0x080022fa:    1c6d        m.      ADDS     r5,r5,#1
        0x080022fc:    4295        .B      CMP      r5,r2
        0x080022fe:    d3f4        ..      BCC      0x80022ea ; mymem_free + 66
        0x08002300:    2000        .       MOVS     r0,#0
        0x08002302:    e7de        ..      B        0x80022c2 ; mymem_free + 26
        0x08002304:    2002        .       MOVS     r0,#2
        0x08002306:    e7dc        ..      B        0x80022c2 ; mymem_free + 26
    $d
        0x08002308:    2000003c    <..     DCD    536870972
        0x0800230c:    08003900    .9..    DCD    134232320
        0x08002310:    080038fc    .8..    DCD    134232316
    $t
    i.mymem_init
    mymem_init
        0x08002314:    b510        ..      PUSH     {r4,lr}
        0x08002316:    4604        .F      MOV      r4,r0
        0x08002318:    490c        .I      LDR      r1,[pc,#48] ; [0x800234c] = 0x80038f8
        0x0800231a:    f8511024    Q.$.    LDR      r1,[r1,r4,LSL #2]
        0x0800231e:    004a        J.      LSLS     r2,r1,#1
        0x08002320:    490b        .I      LDR      r1,[pc,#44] ; [0x8002350] = 0x20000038
        0x08002322:    f8510024    Q.$.    LDR      r0,[r1,r4,LSL #2]
        0x08002326:    2100        .!      MOVS     r1,#0
        0x08002328:    f000f86e    ..n.    BL       mymemset ; 0x8002408
        0x0800232c:    4909        .I      LDR      r1,[pc,#36] ; [0x8002354] = 0x8003900
        0x0800232e:    f8512024    Q.$     LDR      r2,[r1,r4,LSL #2]
        0x08002332:    4907        .I      LDR      r1,[pc,#28] ; [0x8002350] = 0x20000038
        0x08002334:    1f09        ..      SUBS     r1,r1,#4
        0x08002336:    f8510024    Q.$.    LDR      r0,[r1,r4,LSL #2]
        0x0800233a:    2100        .!      MOVS     r1,#0
        0x0800233c:    f000f864    ..d.    BL       mymemset ; 0x8002408
        0x08002340:    2101        .!      MOVS     r1,#1
        0x08002342:    4803        .H      LDR      r0,[pc,#12] ; [0x8002350] = 0x20000038
        0x08002344:    1d00        ..      ADDS     r0,r0,#4
        0x08002346:    5501        .U      STRB     r1,[r0,r4]
        0x08002348:    bd10        ..      POP      {r4,pc}
    $d
        0x0800234a:    0000        ..      DCW    0
        0x0800234c:    080038f8    .8..    DCD    134232312
        0x08002350:    20000038    8..     DCD    536870968
        0x08002354:    08003900    .9..    DCD    134232320
    $t
    i.mymem_malloc
    mymem_malloc
        0x08002358:    e92d47f0    -..G    PUSH     {r4-r10,lr}
        0x0800235c:    4604        .F      MOV      r4,r0
        0x0800235e:    460f        .F      MOV      r7,r1
        0x08002360:    2500        .%      MOVS     r5,#0
        0x08002362:    46a9        .F      MOV      r9,r5
        0x08002364:    4825        %H      LDR      r0,[pc,#148] ; [0x80023fc] = 0x2000003c
        0x08002366:    5d00        .]      LDRB     r0,[r0,r4]
        0x08002368:    b920         .      CBNZ     r0,0x8002374 ; mymem_malloc + 28
        0x0800236a:    4824        $H      LDR      r0,[pc,#144] ; [0x80023fc] = 0x2000003c
        0x0800236c:    3810        .8      SUBS     r0,r0,#0x10
        0x0800236e:    6801        .h      LDR      r1,[r0,#0]
        0x08002370:    4620         F      MOV      r0,r4
        0x08002372:    4788        .G      BLX      r1
        0x08002374:    b91f        ..      CBNZ     r7,0x800237e ; mymem_malloc + 38
        0x08002376:    f04f30ff    O..0    MOV      r0,#0xffffffff
        0x0800237a:    e8bd87f0    ....    POP      {r4-r10,pc}
        0x0800237e:    4820         H      LDR      r0,[pc,#128] ; [0x8002400] = 0x80038fc
        0x08002380:    f8500024    P.$.    LDR      r0,[r0,r4,LSL #2]
        0x08002384:    fbb7f0f0    ....    UDIV     r0,r7,r0
        0x08002388:    b286        ..      UXTH     r6,r0
        0x0800238a:    481d        .H      LDR      r0,[pc,#116] ; [0x8002400] = 0x80038fc
        0x0800238c:    f8500024    P.$.    LDR      r0,[r0,r4,LSL #2]
        0x08002390:    fbb7f1f0    ....    UDIV     r1,r7,r0
        0x08002394:    fb007011    ...p    MLS      r0,r0,r1,r7
        0x08002398:    b108        ..      CBZ      r0,0x800239e ; mymem_malloc + 70
        0x0800239a:    1c70        p.      ADDS     r0,r6,#1
        0x0800239c:    b286        ..      UXTH     r6,r0
        0x0800239e:    4819        .H      LDR      r0,[pc,#100] ; [0x8002404] = 0x80038f8
        0x080023a0:    f8500024    P.$.    LDR      r0,[r0,r4,LSL #2]
        0x080023a4:    1e45        E.      SUBS     r5,r0,#1
        0x080023a6:    e024        $.      B        0x80023f2 ; mymem_malloc + 154
        0x080023a8:    4814        .H      LDR      r0,[pc,#80] ; [0x80023fc] = 0x2000003c
        0x080023aa:    1f00        ..      SUBS     r0,r0,#4
        0x080023ac:    f8500024    P.$.    LDR      r0,[r0,r4,LSL #2]
        0x080023b0:    f8300015    0...    LDRH     r0,[r0,r5,LSL #1]
        0x080023b4:    b920         .      CBNZ     r0,0x80023c0 ; mymem_malloc + 104
        0x080023b6:    f1090001    ....    ADD      r0,r9,#1
        0x080023ba:    fa1ff980    ....    UXTH     r9,r0
        0x080023be:    e001        ..      B        0x80023c4 ; mymem_malloc + 108
        0x080023c0:    f04f0900    O...    MOV      r9,#0
        0x080023c4:    45b1        .E      CMP      r9,r6
        0x080023c6:    d113        ..      BNE      0x80023f0 ; mymem_malloc + 152
        0x080023c8:    f04f0800    O...    MOV      r8,#0
        0x080023cc:    e009        ..      B        0x80023e2 ; mymem_malloc + 138
        0x080023ce:    480b        .H      LDR      r0,[pc,#44] ; [0x80023fc] = 0x2000003c
        0x080023d0:    1f00        ..      SUBS     r0,r0,#4
        0x080023d2:    f8500024    P.$.    LDR      r0,[r0,r4,LSL #2]
        0x080023d6:    eb050108    ....    ADD      r1,r5,r8
        0x080023da:    f8206011     ..`    STRH     r6,[r0,r1,LSL #1]
        0x080023de:    f1080801    ....    ADD      r8,r8,#1
        0x080023e2:    45b0        .E      CMP      r8,r6
        0x080023e4:    d3f3        ..      BCC      0x80023ce ; mymem_malloc + 118
        0x080023e6:    4806        .H      LDR      r0,[pc,#24] ; [0x8002400] = 0x80038fc
        0x080023e8:    f8500024    P.$.    LDR      r0,[r0,r4,LSL #2]
        0x080023ec:    4368        hC      MULS     r0,r5,r0
        0x080023ee:    e7c4        ..      B        0x800237a ; mymem_malloc + 34
        0x080023f0:    1e6d        m.      SUBS     r5,r5,#1
        0x080023f2:    2d00        .-      CMP      r5,#0
        0x080023f4:    dad8        ..      BGE      0x80023a8 ; mymem_malloc + 80
        0x080023f6:    f04f30ff    O..0    MOV      r0,#0xffffffff
        0x080023fa:    e7be        ..      B        0x800237a ; mymem_malloc + 34
    $d
        0x080023fc:    2000003c    <..     DCD    536870972
        0x08002400:    080038fc    .8..    DCD    134232316
        0x08002404:    080038f8    .8..    DCD    134232312
    $t
    i.mymemset
    mymemset
        0x08002408:    b530        0.      PUSH     {r4,r5,lr}
        0x0800240a:    4603        .F      MOV      r3,r0
        0x0800240c:    e001        ..      B        0x8002412 ; mymemset + 10
        0x0800240e:    f8031b01    ....    STRB     r1,[r3],#1
        0x08002412:    1e14        ..      SUBS     r4,r2,#0
        0x08002414:    f1a20201    ....    SUB      r2,r2,#1
        0x08002418:    d1f9        ..      BNE      0x800240e ; mymemset + 6
        0x0800241a:    bd30        0.      POP      {r4,r5,pc}
    i.nvic_irq_enable
    nvic_irq_enable
        0x0800241c:    e92d4ff0    -..O    PUSH     {r4-r11,lr}
        0x08002420:    4603        .F      MOV      r3,r0
        0x08002422:    460e        .F      MOV      r6,r1
        0x08002424:    4617        .F      MOV      r7,r2
        0x08002426:    483d        =H      LDR      r0,[pc,#244] ; [0x800251c] = 0xe000ed0c
        0x08002428:    6800        .h      LDR      r0,[r0,#0]
        0x0800242a:    f40060e0    ...`    AND      r0,r0,#0x700
        0x0800242e:    f5b06fa0    ...o    CMP      r0,#0x500
        0x08002432:    d00f        ..      BEQ      0x8002454 ; nvic_irq_enable + 56
        0x08002434:    dc06        ..      BGT      0x8002444 ; nvic_irq_enable + 40
        0x08002436:    f5b07f40    ..@.    CMP      r0,#0x300
        0x0800243a:    d00d        ..      BEQ      0x8002458 ; nvic_irq_enable + 60
        0x0800243c:    f5b06f80    ...o    CMP      r0,#0x400
        0x08002440:    d10b        ..      BNE      0x800245a ; nvic_irq_enable + 62
        0x08002442:    e008        ..      B        0x8002456 ; nvic_irq_enable + 58
        0x08002444:    f5b06fc0    ...o    CMP      r0,#0x600
        0x08002448:    d003        ..      BEQ      0x8002452 ; nvic_irq_enable + 54
        0x0800244a:    f5b06fe0    ...o    CMP      r0,#0x700
        0x0800244e:    d104        ..      BNE      0x800245a ; nvic_irq_enable + 62
        0x08002450:    bf00        ..      NOP      
        0x08002452:    bf00        ..      NOP      
        0x08002454:    bf00        ..      NOP      
        0x08002456:    bf00        ..      NOP      
        0x08002458:    e004        ..      B        0x8002464 ; nvic_irq_enable + 72
        0x0800245a:    f44f60a0    O..`    MOV      r0,#0x500
        0x0800245e:    f000f861    ..a.    BL       nvic_priority_group_set ; 0x8002524
        0x08002462:    bf00        ..      NOP      
        0x08002464:    bf00        ..      NOP      
        0x08002466:    bf00        ..      NOP      
        0x08002468:    482c        ,H      LDR      r0,[pc,#176] ; [0x800251c] = 0xe000ed0c
        0x0800246a:    6800        .h      LDR      r0,[r0,#0]
        0x0800246c:    f3c02002    ...     UBFX     r0,r0,#8,#3
        0x08002470:    4604        .F      MOV      r4,r0
        0x08002472:    4620         F      MOV      r0,r4
        0x08002474:    4632        2F      MOV      r2,r6
        0x08002476:    46bc        .F      MOV      r12,r7
        0x08002478:    4601        .F      MOV      r1,r0
        0x0800247a:    f1c10a07    ....    RSB      r10,r1,#7
        0x0800247e:    f1ba0f04    ....    CMP      r10,#4
        0x08002482:    d902        ..      BLS      0x800248a ; nvic_irq_enable + 110
        0x08002484:    f04f0a04    O...    MOV      r10,#4
        0x08002488:    e001        ..      B        0x800248e ; nvic_irq_enable + 114
        0x0800248a:    f1c10a07    ....    RSB      r10,r1,#7
        0x0800248e:    46d1        .F      MOV      r9,r10
        0x08002490:    f1010a04    ....    ADD      r10,r1,#4
        0x08002494:    f1ba0f07    ....    CMP      r10,#7
        0x08002498:    d202        ..      BCS      0x80024a0 ; nvic_irq_enable + 132
        0x0800249a:    f04f0a00    O...    MOV      r10,#0
        0x0800249e:    e001        ..      B        0x80024a4 ; nvic_irq_enable + 136
        0x080024a0:    f1a10a03    ....    SUB      r10,r1,#3
        0x080024a4:    46d0        .F      MOV      r8,r10
        0x080024a6:    f04f0a01    O...    MOV      r10,#1
        0x080024aa:    fa0afa09    ....    LSL      r10,r10,r9
        0x080024ae:    f1aa0a01    ....    SUB      r10,r10,#1
        0x080024b2:    ea0a0a02    ....    AND      r10,r10,r2
        0x080024b6:    fa0afa08    ....    LSL      r10,r10,r8
        0x080024ba:    f04f0b01    O...    MOV      r11,#1
        0x080024be:    fa0bfb08    ....    LSL      r11,r11,r8
        0x080024c2:    f1ab0b01    ....    SUB      r11,r11,#1
        0x080024c6:    ea0b0b0c    ....    AND      r11,r11,r12
        0x080024ca:    ea4a050b    J...    ORR      r5,r10,r11
        0x080024ce:    bf00        ..      NOP      
        0x080024d0:    4619        .F      MOV      r1,r3
        0x080024d2:    4628        (F      MOV      r0,r5
        0x080024d4:    2900        .)      CMP      r1,#0
        0x080024d6:    da0b        ..      BGE      0x80024f0 ; nvic_irq_enable + 212
        0x080024d8:    0702        ..      LSLS     r2,r0,#28
        0x080024da:    ea4f6812    O..h    LSR      r8,r2,#24
        0x080024de:    4a0f        .J      LDR      r2,[pc,#60] ; [0x800251c] = 0xe000ed0c
        0x080024e0:    320c        .2      ADDS     r2,r2,#0xc
        0x080024e2:    f0010c0f    ....    AND      r12,r1,#0xf
        0x080024e6:    f1ac0c04    ....    SUB      r12,r12,#4
        0x080024ea:    f802800c    ....    STRB     r8,[r2,r12]
        0x080024ee:    e005        ..      B        0x80024fc ; nvic_irq_enable + 224
        0x080024f0:    0702        ..      LSLS     r2,r0,#28
        0x080024f2:    ea4f6c12    O..l    LSR      r12,r2,#24
        0x080024f6:    4a0a        .J      LDR      r2,[pc,#40] ; [0x8002520] = 0xe000e400
        0x080024f8:    f802c001    ....    STRB     r12,[r2,r1]
        0x080024fc:    bf00        ..      NOP      
        0x080024fe:    bf00        ..      NOP      
        0x08002500:    f003011f    ....    AND      r1,r3,#0x1f
        0x08002504:    2001        .       MOVS     r0,#1
        0x08002506:    4088        .@      LSLS     r0,r0,r1
        0x08002508:    0959        Y.      LSRS     r1,r3,#5
        0x0800250a:    0089        ..      LSLS     r1,r1,#2
        0x0800250c:    f10121e0    ...!    ADD      r1,r1,#0xe000e000
        0x08002510:    f8c10100    ....    STR      r0,[r1,#0x100]
        0x08002514:    bf00        ..      NOP      
        0x08002516:    e8bd8ff0    ....    POP      {r4-r11,pc}
    $d
        0x0800251a:    0000        ..      DCW    0
        0x0800251c:    e000ed0c    ....    DCD    3758157068
        0x08002520:    e000e400    ....    DCD    3758154752
    $t
    i.nvic_priority_group_set
    nvic_priority_group_set
        0x08002524:    4902        .I      LDR      r1,[pc,#8] ; [0x8002530] = 0x5fa0000
        0x08002526:    4301        .C      ORRS     r1,r1,r0
        0x08002528:    4a02        .J      LDR      r2,[pc,#8] ; [0x8002534] = 0xe000ed0c
        0x0800252a:    6011        .`      STR      r1,[r2,#0]
        0x0800252c:    4770        pG      BX       lr
    $d
        0x0800252e:    0000        ..      DCW    0
        0x08002530:    05fa0000    ....    DCD    100270080
        0x08002534:    e000ed0c    ....    DCD    3758157068
    $t
    i.nvic_vector_table_set
    nvic_vector_table_set
        0x08002538:    4a03        .J      LDR      r2,[pc,#12] ; [0x8002548] = 0x1fffff80
        0x0800253a:    400a        .@      ANDS     r2,r2,r1
        0x0800253c:    4302        .C      ORRS     r2,r2,r0
        0x0800253e:    4b03        .K      LDR      r3,[pc,#12] ; [0x800254c] = 0xe000ed08
        0x08002540:    601a        .`      STR      r2,[r3,#0]
        0x08002542:    f3bf8f4f    ..O.    DSB      
        0x08002546:    4770        pG      BX       lr
    $d
        0x08002548:    1fffff80    ....    DCD    536870784
        0x0800254c:    e000ed08    ....    DCD    3758157064
    $t
    i.rcu_all_reset_flag_clear
    rcu_all_reset_flag_clear
        0x08002550:    4803        .H      LDR      r0,[pc,#12] ; [0x8002560] = 0x40023874
        0x08002552:    6800        .h      LDR      r0,[r0,#0]
        0x08002554:    f0407080    @..p    ORR      r0,r0,#0x1000000
        0x08002558:    4901        .I      LDR      r1,[pc,#4] ; [0x8002560] = 0x40023874
        0x0800255a:    6008        .`      STR      r0,[r1,#0]
        0x0800255c:    4770        pG      BX       lr
    $d
        0x0800255e:    0000        ..      DCW    0
        0x08002560:    40023874    t8.@    DCD    1073887348
    $t
    i.rcu_clock_freq_get
    rcu_clock_freq_get
        0x08002564:    e92d4ff0    -..O    PUSH     {r4-r11,lr}
        0x08002568:    b08c        ..      SUB      sp,sp,#0x30
        0x0800256a:    4606        .F      MOV      r6,r0
        0x0800256c:    2000        .       MOVS     r0,#0
        0x0800256e:    900a        ..      STR      r0,[sp,#0x28]
        0x08002570:    a03e        >.      ADR      r0,{pc}+0xfc ; 0x800266c
        0x08002572:    e8904c00    ...L    LDM      r0,{r10,r11,lr}
        0x08002576:    68c0        .h      LDR      r0,[r0,#0xc]
        0x08002578:    e9cdbe05    ....    STRD     r11,lr,[sp,#0x14]
        0x0800257c:    f8cda010    ....    STR      r10,[sp,#0x10]
        0x08002580:    9007        ..      STR      r0,[sp,#0x1c]
        0x08002582:    f20f0aec    ....    ADR.W    r10,{pc}+0xee ; 0x8002670
        0x08002586:    e9da0a00    ....    LDRD     r0,r10,[r10,#0]
        0x0800258a:    e9cd0a02    ....    STRD     r0,r10,[sp,#8]
        0x0800258e:    f20f0ae0    ....    ADR.W    r10,{pc}+0xe2 ; 0x8002670
        0x08002592:    e9da0a00    ....    LDRD     r0,r10,[r10,#0]
        0x08002596:    e9cd0a00    ....    STRD     r0,r10,[sp,#0]
        0x0800259a:    4838        8H      LDR      r0,[pc,#224] ; [0x800267c] = 0x40023808
        0x0800259c:    6800        .h      LDR      r0,[r0,#0]
        0x0800259e:    f3c00081    ....    UBFX     r0,r0,#2,#2
        0x080025a2:    900b        ..      STR      r0,[sp,#0x2c]
        0x080025a4:    980b        ..      LDR      r0,[sp,#0x2c]
        0x080025a6:    b120         .      CBZ      r0,0x80025b2 ; rcu_clock_freq_get + 78
        0x080025a8:    2801        .(      CMP      r0,#1
        0x080025aa:    d004        ..      BEQ      0x80025b6 ; rcu_clock_freq_get + 82
        0x080025ac:    2802        .(      CMP      r0,#2
        0x080025ae:    d128        (.      BNE      0x8002602 ; rcu_clock_freq_get + 158
        0x080025b0:    e003        ..      B        0x80025ba ; rcu_clock_freq_get + 86
        0x080025b2:    4933        3I      LDR      r1,[pc,#204] ; [0x8002680] = 0xf42400
        0x080025b4:    e027        '.      B        0x8002606 ; rcu_clock_freq_get + 162
        0x080025b6:    4933        3I      LDR      r1,[pc,#204] ; [0x8002684] = 0x17d7840
        0x080025b8:    e025        %.      B        0x8002606 ; rcu_clock_freq_get + 162
        0x080025ba:    4830        0H      LDR      r0,[pc,#192] ; [0x800267c] = 0x40023808
        0x080025bc:    1f00        ..      SUBS     r0,r0,#4
        0x080025be:    6800        .h      LDR      r0,[r0,#0]
        0x080025c0:    f000073f    ..?.    AND      r7,r0,#0x3f
        0x080025c4:    482d        -H      LDR      r0,[pc,#180] ; [0x800267c] = 0x40023808
        0x080025c6:    1f00        ..      SUBS     r0,r0,#4
        0x080025c8:    6800        .h      LDR      r0,[r0,#0]
        0x080025ca:    f3c01c88    ....    UBFX     r12,r0,#6,#9
        0x080025ce:    482b        +H      LDR      r0,[pc,#172] ; [0x800267c] = 0x40023808
        0x080025d0:    1f00        ..      SUBS     r0,r0,#4
        0x080025d2:    6800        .h      LDR      r0,[r0,#0]
        0x080025d4:    f3c04001    ...@    UBFX     r0,r0,#16,#2
        0x080025d8:    1c40        @.      ADDS     r0,r0,#1
        0x080025da:    ea4f0940    O.@.    LSL      r9,r0,#1
        0x080025de:    4827        'H      LDR      r0,[pc,#156] ; [0x800267c] = 0x40023808
        0x080025e0:    1f00        ..      SUBS     r0,r0,#4
        0x080025e2:    6800        .h      LDR      r0,[r0,#0]
        0x080025e4:    f4000880    ....    AND      r8,r0,#0x400000
        0x080025e8:    f5b80f80    ....    CMP      r8,#0x400000
        0x080025ec:    d101        ..      BNE      0x80025f2 ; rcu_clock_freq_get + 142
        0x080025ee:    4b25        %K      LDR      r3,[pc,#148] ; [0x8002684] = 0x17d7840
        0x080025f0:    e000        ..      B        0x80025f4 ; rcu_clock_freq_get + 144
        0x080025f2:    4b23        #K      LDR      r3,[pc,#140] ; [0x8002680] = 0xf42400
        0x080025f4:    fbb3f0f7    ....    UDIV     r0,r3,r7
        0x080025f8:    fb00f00c    ....    MUL      r0,r0,r12
        0x080025fc:    fbb0f1f9    ....    UDIV     r1,r0,r9
        0x08002600:    e001        ..      B        0x8002606 ; rcu_clock_freq_get + 162
        0x08002602:    491f        .I      LDR      r1,[pc,#124] ; [0x8002680] = 0xf42400
        0x08002604:    bf00        ..      NOP      
        0x08002606:    bf00        ..      NOP      
        0x08002608:    481c        .H      LDR      r0,[pc,#112] ; [0x800267c] = 0x40023808
        0x0800260a:    6800        .h      LDR      r0,[r0,#0]
        0x0800260c:    f3c01403    ....    UBFX     r4,r0,#4,#4
        0x08002610:    a804        ..      ADD      r0,sp,#0x10
        0x08002612:    5d05        .]      LDRB     r5,[r0,r4]
        0x08002614:    fa21f205    !...    LSR      r2,r1,r5
        0x08002618:    4818        .H      LDR      r0,[pc,#96] ; [0x800267c] = 0x40023808
        0x0800261a:    6800        .h      LDR      r0,[r0,#0]
        0x0800261c:    f3c02482    ...$    UBFX     r4,r0,#10,#3
        0x08002620:    a802        ..      ADD      r0,sp,#8
        0x08002622:    5d05        .]      LDRB     r5,[r0,r4]
        0x08002624:    fa22f005    "...    LSR      r0,r2,r5
        0x08002628:    9009        ..      STR      r0,[sp,#0x24]
        0x0800262a:    4814        .H      LDR      r0,[pc,#80] ; [0x800267c] = 0x40023808
        0x0800262c:    6800        .h      LDR      r0,[r0,#0]
        0x0800262e:    f3c03442    ..B4    UBFX     r4,r0,#13,#3
        0x08002632:    f81d5004    ...P    LDRB     r5,[sp,r4]
        0x08002636:    fa22f005    "...    LSR      r0,r2,r5
        0x0800263a:    9008        ..      STR      r0,[sp,#0x20]
        0x0800263c:    b136        6.      CBZ      r6,0x800264c ; rcu_clock_freq_get + 232
        0x0800263e:    2e01        ..      CMP      r6,#1
        0x08002640:    d006        ..      BEQ      0x8002650 ; rcu_clock_freq_get + 236
        0x08002642:    2e02        ..      CMP      r6,#2
        0x08002644:    d006        ..      BEQ      0x8002654 ; rcu_clock_freq_get + 240
        0x08002646:    2e03        ..      CMP      r6,#3
        0x08002648:    d10a        ..      BNE      0x8002660 ; rcu_clock_freq_get + 252
        0x0800264a:    e006        ..      B        0x800265a ; rcu_clock_freq_get + 246
        0x0800264c:    910a        ..      STR      r1,[sp,#0x28]
        0x0800264e:    e008        ..      B        0x8002662 ; rcu_clock_freq_get + 254
        0x08002650:    920a        ..      STR      r2,[sp,#0x28]
        0x08002652:    e006        ..      B        0x8002662 ; rcu_clock_freq_get + 254
        0x08002654:    9809        ..      LDR      r0,[sp,#0x24]
        0x08002656:    900a        ..      STR      r0,[sp,#0x28]
        0x08002658:    e003        ..      B        0x8002662 ; rcu_clock_freq_get + 254
        0x0800265a:    9808        ..      LDR      r0,[sp,#0x20]
        0x0800265c:    900a        ..      STR      r0,[sp,#0x28]
        0x0800265e:    e000        ..      B        0x8002662 ; rcu_clock_freq_get + 254
        0x08002660:    bf00        ..      NOP      
        0x08002662:    bf00        ..      NOP      
        0x08002664:    980a        ..      LDR      r0,[sp,#0x28]
        0x08002666:    b00c        ..      ADD      sp,sp,#0x30
        0x08002668:    e8bd8ff0    ....    POP      {r4-r11,pc}
    $d
        0x0800266c:    00000000    ....    DCD    0
        0x08002670:    00000000    ....    DCD    0
        0x08002674:    04030201    ....    DCD    67305985
        0x08002678:    09080706    ....    DCD    151521030
        0x0800267c:    40023808    .8.@    DCD    1073887240
        0x08002680:    00f42400    .$..    DCD    16000000
        0x08002684:    017d7840    @x}.    DCD    25000000
    $t
    i.rcu_flag_get
    rcu_flag_get
        0x08002688:    b510        ..      PUSH     {r4,lr}
        0x0800268a:    4601        .F      MOV      r1,r0
        0x0800268c:    2000        .       MOVS     r0,#0
        0x0800268e:    4b07        .K      LDR      r3,[pc,#28] ; [0x80026ac] = 0x40023000
        0x08002690:    eb031291    ....    ADD      r2,r3,r1,LSR #6
        0x08002694:    f8d22800    ...(    LDR      r2,[r2,#0x800]
        0x08002698:    f001041f    ....    AND      r4,r1,#0x1f
        0x0800269c:    2301        .#      MOVS     r3,#1
        0x0800269e:    40a3        .@      LSLS     r3,r3,r4
        0x080026a0:    401a        .@      ANDS     r2,r2,r3
        0x080026a2:    b10a        ..      CBZ      r2,0x80026a8 ; rcu_flag_get + 32
        0x080026a4:    2001        .       MOVS     r0,#1
        0x080026a6:    e000        ..      B        0x80026aa ; rcu_flag_get + 34
        0x080026a8:    2000        .       MOVS     r0,#0
        0x080026aa:    bd10        ..      POP      {r4,pc}
    $d
        0x080026ac:    40023000    .0.@    DCD    1073885184
    $t
    i.rcu_periph_clock_enable
    rcu_periph_clock_enable
        0x080026b0:    4a07        .J      LDR      r2,[pc,#28] ; [0x80026d0] = 0x40023000
        0x080026b2:    eb021190    ....    ADD      r1,r2,r0,LSR #6
        0x080026b6:    f8d11800    ....    LDR      r1,[r1,#0x800]
        0x080026ba:    f000031f    ....    AND      r3,r0,#0x1f
        0x080026be:    2201        ."      MOVS     r2,#1
        0x080026c0:    409a        .@      LSLS     r2,r2,r3
        0x080026c2:    4311        .C      ORRS     r1,r1,r2
        0x080026c4:    4b02        .K      LDR      r3,[pc,#8] ; [0x80026d0] = 0x40023000
        0x080026c6:    eb031290    ....    ADD      r2,r3,r0,LSR #6
        0x080026ca:    f8c21800    ....    STR      r1,[r2,#0x800]
        0x080026ce:    4770        pG      BX       lr
    $d
        0x080026d0:    40023000    .0.@    DCD    1073885184
    $t
    i.rcu_periph_reset_disable
    rcu_periph_reset_disable
        0x080026d4:    4a07        .J      LDR      r2,[pc,#28] ; [0x80026f4] = 0x40023000
        0x080026d6:    eb021190    ....    ADD      r1,r2,r0,LSR #6
        0x080026da:    f8d11800    ....    LDR      r1,[r1,#0x800]
        0x080026de:    f000031f    ....    AND      r3,r0,#0x1f
        0x080026e2:    2201        ."      MOVS     r2,#1
        0x080026e4:    409a        .@      LSLS     r2,r2,r3
        0x080026e6:    4391        .C      BICS     r1,r1,r2
        0x080026e8:    4b02        .K      LDR      r3,[pc,#8] ; [0x80026f4] = 0x40023000
        0x080026ea:    eb031290    ....    ADD      r2,r3,r0,LSR #6
        0x080026ee:    f8c21800    ....    STR      r1,[r2,#0x800]
        0x080026f2:    4770        pG      BX       lr
    $d
        0x080026f4:    40023000    .0.@    DCD    1073885184
    $t
    i.rcu_periph_reset_enable
    rcu_periph_reset_enable
        0x080026f8:    4a07        .J      LDR      r2,[pc,#28] ; [0x8002718] = 0x40023000
        0x080026fa:    eb021190    ....    ADD      r1,r2,r0,LSR #6
        0x080026fe:    f8d11800    ....    LDR      r1,[r1,#0x800]
        0x08002702:    f000031f    ....    AND      r3,r0,#0x1f
        0x08002706:    2201        ."      MOVS     r2,#1
        0x08002708:    409a        .@      LSLS     r2,r2,r3
        0x0800270a:    4311        .C      ORRS     r1,r1,r2
        0x0800270c:    4b02        .K      LDR      r3,[pc,#8] ; [0x8002718] = 0x40023000
        0x0800270e:    eb031290    ....    ADD      r2,r3,r0,LSR #6
        0x08002712:    f8c21800    ....    STR      r1,[r2,#0x800]
        0x08002716:    4770        pG      BX       lr
    $d
        0x08002718:    40023000    .0.@    DCD    1073885184
    $t
    i.rcu_timer_clock_prescaler_config
    rcu_timer_clock_prescaler_config
        0x0800271c:    f06f7180    o..q    MVN      r1,#0x1000000
        0x08002720:    4288        .B      CMP      r0,r1
        0x08002722:    d105        ..      BNE      0x8002730 ; rcu_timer_clock_prescaler_config + 20
        0x08002724:    4905        .I      LDR      r1,[pc,#20] ; [0x800273c] = 0x4002388c
        0x08002726:    6809        .h      LDR      r1,[r1,#0]
        0x08002728:    4001        .@      ANDS     r1,r1,r0
        0x0800272a:    4a04        .J      LDR      r2,[pc,#16] ; [0x800273c] = 0x4002388c
        0x0800272c:    6011        .`      STR      r1,[r2,#0]
        0x0800272e:    e004        ..      B        0x800273a ; rcu_timer_clock_prescaler_config + 30
        0x08002730:    4902        .I      LDR      r1,[pc,#8] ; [0x800273c] = 0x4002388c
        0x08002732:    6809        .h      LDR      r1,[r1,#0]
        0x08002734:    4301        .C      ORRS     r1,r1,r0
        0x08002736:    4a01        .J      LDR      r2,[pc,#4] ; [0x800273c] = 0x4002388c
        0x08002738:    6011        .`      STR      r1,[r2,#0]
        0x0800273a:    4770        pG      BX       lr
    $d
        0x0800273c:    4002388c    .8.@    DCD    1073887372
    $t
    i.read_boot_update_param
    read_boot_update_param
        0x08002740:    b510        ..      PUSH     {r4,lr}
        0x08002742:    4604        .F      MOV      r4,r0
        0x08002744:    4804        .H      LDR      r0,[pc,#16] ; [0x8002758] = 0x20002244
        0x08002746:    6940        @i      LDR      r0,[r0,#0x14]
        0x08002748:    f5a06180    ...a    SUB      r1,r0,#0x400
        0x0800274c:    2210        ."      MOVS     r2,#0x10
        0x0800274e:    4620         F      MOV      r0,r4
        0x08002750:    f000fa6c    ..l.    BL       sf_ReadBuffer ; 0x8002c2c
        0x08002754:    bd10        ..      POP      {r4,pc}
    $d
        0x08002756:    0000        ..      DCW    0
        0x08002758:    20002244    D".     DCD    536879684
    $t
    i.sf_AutoWriteSector
    sf_AutoWriteSector
        0x0800275c:    e92d5ff0    -.._    PUSH     {r4-r12,lr}
        0x08002760:    4607        .F      MOV      r7,r0
        0x08002762:    460d        .F      MOV      r5,r1
        0x08002764:    4616        .F      MOV      r6,r2
        0x08002766:    b916        ..      CBNZ     r6,0x800276e ; sf_AutoWriteSector + 18
        0x08002768:    2001        .       MOVS     r0,#1
        0x0800276a:    e8bd9ff0    ....    POP      {r4-r12,pc}
        0x0800276e:    483e        >H      LDR      r0,[pc,#248] ; [0x8002868] = 0x20002244
        0x08002770:    6940        @i      LDR      r0,[r0,#0x14]
        0x08002772:    42a8        .B      CMP      r0,r5
        0x08002774:    d801        ..      BHI      0x800277a ; sf_AutoWriteSector + 30
        0x08002776:    2000        .       MOVS     r0,#0
        0x08002778:    e7f7        ..      B        0x800276a ; sf_AutoWriteSector + 14
        0x0800277a:    483b        ;H      LDR      r0,[pc,#236] ; [0x8002868] = 0x20002244
        0x0800277c:    8b00        ..      LDRH     r0,[r0,#0x18]
        0x0800277e:    42b0        .B      CMP      r0,r6
        0x08002780:    da01        ..      BGE      0x8002786 ; sf_AutoWriteSector + 42
        0x08002782:    2000        .       MOVS     r0,#0
        0x08002784:    e7f1        ..      B        0x800276a ; sf_AutoWriteSector + 14
        0x08002786:    4632        2F      MOV      r2,r6
        0x08002788:    4629        )F      MOV      r1,r5
        0x0800278a:    4838        8H      LDR      r0,[pc,#224] ; [0x800286c] = 0x20002260
        0x0800278c:    f000fa4e    ..N.    BL       sf_ReadBuffer ; 0x8002c2c
        0x08002790:    4632        2F      MOV      r2,r6
        0x08002792:    4639        9F      MOV      r1,r7
        0x08002794:    4835        5H      LDR      r0,[pc,#212] ; [0x800286c] = 0x20002260
        0x08002796:    f7fdfd39    ..9.    BL       memcmp ; 0x800020c
        0x0800279a:    b908        ..      CBNZ     r0,0x80027a0 ; sf_AutoWriteSector + 68
        0x0800279c:    2001        .       MOVS     r0,#1
        0x0800279e:    e7e4        ..      B        0x800276a ; sf_AutoWriteSector + 14
        0x080027a0:    f04f0a00    O...    MOV      r10,#0
        0x080027a4:    4632        2F      MOV      r2,r6
        0x080027a6:    4639        9F      MOV      r1,r7
        0x080027a8:    4830        0H      LDR      r0,[pc,#192] ; [0x800286c] = 0x20002260
        0x080027aa:    f000f91b    ....    BL       sf_NeedErase ; 0x80029e4
        0x080027ae:    b108        ..      CBZ      r0,0x80027b4 ; sf_AutoWriteSector + 88
        0x080027b0:    f04f0a01    O...    MOV      r10,#1
        0x080027b4:    482c        ,H      LDR      r0,[pc,#176] ; [0x8002868] = 0x20002244
        0x080027b6:    8b00        ..      LDRH     r0,[r0,#0x18]
        0x080027b8:    1e40        @.      SUBS     r0,r0,#1
        0x080027ba:    ea250800    %...    BIC      r8,r5,r0
        0x080027be:    482a        *H      LDR      r0,[pc,#168] ; [0x8002868] = 0x20002244
        0x080027c0:    8b00        ..      LDRH     r0,[r0,#0x18]
        0x080027c2:    42b0        .B      CMP      r0,r6
        0x080027c4:    d10b        ..      BNE      0x80027de ; sf_AutoWriteSector + 130
        0x080027c6:    2400        .$      MOVS     r4,#0
        0x080027c8:    e004        ..      B        0x80027d4 ; sf_AutoWriteSector + 120
        0x080027ca:    5d38        8]      LDRB     r0,[r7,r4]
        0x080027cc:    4927        'I      LDR      r1,[pc,#156] ; [0x800286c] = 0x20002260
        0x080027ce:    5508        .U      STRB     r0,[r1,r4]
        0x080027d0:    1c60        `.      ADDS     r0,r4,#1
        0x080027d2:    b284        ..      UXTH     r4,r0
        0x080027d4:    4824        $H      LDR      r0,[pc,#144] ; [0x8002868] = 0x20002244
        0x080027d6:    8b00        ..      LDRH     r0,[r0,#0x18]
        0x080027d8:    42a0        .B      CMP      r0,r4
        0x080027da:    dcf6        ..      BGT      0x80027ca ; sf_AutoWriteSector + 110
        0x080027dc:    e010        ..      B        0x8002800 ; sf_AutoWriteSector + 164
        0x080027de:    4822        "H      LDR      r0,[pc,#136] ; [0x8002868] = 0x20002244
        0x080027e0:    8b02        ..      LDRH     r2,[r0,#0x18]
        0x080027e2:    4641        AF      MOV      r1,r8
        0x080027e4:    4821        !H      LDR      r0,[pc,#132] ; [0x800286c] = 0x20002260
        0x080027e6:    f000fa21    ..!.    BL       sf_ReadBuffer ; 0x8002c2c
        0x080027ea:    481f        .H      LDR      r0,[pc,#124] ; [0x8002868] = 0x20002244
        0x080027ec:    8b00        ..      LDRH     r0,[r0,#0x18]
        0x080027ee:    1e40        @.      SUBS     r0,r0,#1
        0x080027f0:    4028        (@      ANDS     r0,r0,r5
        0x080027f2:    b284        ..      UXTH     r4,r0
        0x080027f4:    491d        .I      LDR      r1,[pc,#116] ; [0x800286c] = 0x20002260
        0x080027f6:    1908        ..      ADDS     r0,r1,r4
        0x080027f8:    4632        2F      MOV      r2,r6
        0x080027fa:    4639        9F      MOV      r1,r7
        0x080027fc:    f7fdfcf4    ....    BL       __aeabi_memcpy ; 0x80001e8
        0x08002800:    f04f0b00    O...    MOV      r11,#0
        0x08002804:    2400        .$      MOVS     r4,#0
        0x08002806:    e02a        *.      B        0x800285e ; sf_AutoWriteSector + 258
        0x08002808:    f1ba0f01    ....    CMP      r10,#1
        0x0800280c:    d102        ..      BNE      0x8002814 ; sf_AutoWriteSector + 184
        0x0800280e:    4640        @F      MOV      r0,r8
        0x08002810:    f000f8b0    ....    BL       sf_EraseSector ; 0x8002974
        0x08002814:    4814        .H      LDR      r0,[pc,#80] ; [0x8002868] = 0x20002244
        0x08002816:    8b02        ..      LDRH     r2,[r0,#0x18]
        0x08002818:    4641        AF      MOV      r1,r8
        0x0800281a:    4814        .H      LDR      r0,[pc,#80] ; [0x800286c] = 0x20002260
        0x0800281c:    f000f8f6    ....    BL       sf_PageWrite ; 0x8002a0c
        0x08002820:    4632        2F      MOV      r2,r6
        0x08002822:    4639        9F      MOV      r1,r7
        0x08002824:    4628        (F      MOV      r0,r5
        0x08002826:    f000f823    ..#.    BL       sf_CmpData ; 0x8002870
        0x0800282a:    b910        ..      CBNZ     r0,0x8002832 ; sf_AutoWriteSector + 214
        0x0800282c:    f04f0b01    O...    MOV      r11,#1
        0x08002830:    e017        ..      B        0x8002862 ; sf_AutoWriteSector + 262
        0x08002832:    4632        2F      MOV      r2,r6
        0x08002834:    4639        9F      MOV      r1,r7
        0x08002836:    4628        (F      MOV      r0,r5
        0x08002838:    f000f81a    ....    BL       sf_CmpData ; 0x8002870
        0x0800283c:    b910        ..      CBNZ     r0,0x8002844 ; sf_AutoWriteSector + 232
        0x0800283e:    f04f0b01    O...    MOV      r11,#1
        0x08002842:    e00e        ..      B        0x8002862 ; sf_AutoWriteSector + 262
        0x08002844:    f04f0900    O...    MOV      r9,#0
        0x08002848:    e003        ..      B        0x8002852 ; sf_AutoWriteSector + 246
        0x0800284a:    f1090001    ....    ADD      r0,r9,#1
        0x0800284e:    fa1ff980    ....    UXTH     r9,r0
        0x08002852:    f2427010    B..p    MOV      r0,#0x2710
        0x08002856:    4581        .E      CMP      r9,r0
        0x08002858:    dbf7        ..      BLT      0x800284a ; sf_AutoWriteSector + 238
        0x0800285a:    1c60        `.      ADDS     r0,r4,#1
        0x0800285c:    b284        ..      UXTH     r4,r0
        0x0800285e:    2c03        .,      CMP      r4,#3
        0x08002860:    dbd2        ..      BLT      0x8002808 ; sf_AutoWriteSector + 172
        0x08002862:    bf00        ..      NOP      
        0x08002864:    4658        XF      MOV      r0,r11
        0x08002866:    e780        ..      B        0x800276a ; sf_AutoWriteSector + 14
    $d
        0x08002868:    20002244    D".     DCD    536879684
        0x0800286c:    20002260    `".     DCD    536879712
    $t
    i.sf_CmpData
    sf_CmpData
        0x08002870:    e92d47f0    -..G    PUSH     {r4-r10,lr}
        0x08002874:    4605        .F      MOV      r5,r0
        0x08002876:    460e        .F      MOV      r6,r1
        0x08002878:    4617        .F      MOV      r7,r2
        0x0800287a:    19e8        ..      ADDS     r0,r5,r7
        0x0800287c:    4939        9I      LDR      r1,[pc,#228] ; [0x8002964] = 0x20002244
        0x0800287e:    6949        Ii      LDR      r1,[r1,#0x14]
        0x08002880:    4288        .B      CMP      r0,r1
        0x08002882:    d902        ..      BLS      0x800288a ; sf_CmpData + 26
        0x08002884:    2001        .       MOVS     r0,#1
        0x08002886:    e8bd87f0    ....    POP      {r4-r10,pc}
        0x0800288a:    b90f        ..      CBNZ     r7,0x8002890 ; sf_CmpData + 32
        0x0800288c:    2000        .       MOVS     r0,#0
        0x0800288e:    e7fa        ..      B        0x8002886 ; sf_CmpData + 22
        0x08002890:    2000        .       MOVS     r0,#0
        0x08002892:    f000fae3    ....    BL       sf_SetCS ; 0x8002e5c
        0x08002896:    2000        .       MOVS     r0,#0
        0x08002898:    4933        3I      LDR      r1,[pc,#204] ; [0x8002968] = 0x2000001c
        0x0800289a:    6008        .`      STR      r0,[r1,#0]
        0x0800289c:    2103        .!      MOVS     r1,#3
        0x0800289e:    4832        2H      LDR      r0,[pc,#200] ; [0x8002968] = 0x2000001c
        0x080028a0:    6802        .h      LDR      r2,[r0,#0]
        0x080028a2:    6800        .h      LDR      r0,[r0,#0]
        0x080028a4:    1c40        @.      ADDS     r0,r0,#1
        0x080028a6:    4b30        0K      LDR      r3,[pc,#192] ; [0x8002968] = 0x2000001c
        0x080028a8:    6018        .`      STR      r0,[r3,#0]
        0x080028aa:    4830        0H      LDR      r0,[pc,#192] ; [0x800296c] = 0x20000244
        0x080028ac:    5481        .T      STRB     r1,[r0,r2]
        0x080028ae:    f3c54107    ...A    UBFX     r1,r5,#16,#8
        0x080028b2:    4618        .F      MOV      r0,r3
        0x080028b4:    6802        .h      LDR      r2,[r0,#0]
        0x080028b6:    6800        .h      LDR      r0,[r0,#0]
        0x080028b8:    1c40        @.      ADDS     r0,r0,#1
        0x080028ba:    6018        .`      STR      r0,[r3,#0]
        0x080028bc:    482b        +H      LDR      r0,[pc,#172] ; [0x800296c] = 0x20000244
        0x080028be:    5481        .T      STRB     r1,[r0,r2]
        0x080028c0:    f3c52207    ..."    UBFX     r2,r5,#8,#8
        0x080028c4:    4618        .F      MOV      r0,r3
        0x080028c6:    6801        .h      LDR      r1,[r0,#0]
        0x080028c8:    6800        .h      LDR      r0,[r0,#0]
        0x080028ca:    1c40        @.      ADDS     r0,r0,#1
        0x080028cc:    6018        .`      STR      r0,[r3,#0]
        0x080028ce:    4827        'H      LDR      r0,[pc,#156] ; [0x800296c] = 0x20000244
        0x080028d0:    5442        BT      STRB     r2,[r0,r1]
        0x080028d2:    4618        .F      MOV      r0,r3
        0x080028d4:    6802        .h      LDR      r2,[r0,#0]
        0x080028d6:    6800        .h      LDR      r0,[r0,#0]
        0x080028d8:    1c40        @.      ADDS     r0,r0,#1
        0x080028da:    6018        .`      STR      r0,[r3,#0]
        0x080028dc:    4823        #H      LDR      r0,[pc,#140] ; [0x800296c] = 0x20000244
        0x080028de:    5485        .T      STRB     r5,[r0,r2]
        0x080028e0:    f7feff44    ..D.    BL       bsp_spiTransfer ; 0x800176c
        0x080028e4:    f04f0900    O...    MOV      r9,#0
        0x080028e8:    e017        ..      B        0x800291a ; sf_CmpData + 170
        0x080028ea:    f44f5080    O..P    MOV      r0,#0x1000
        0x080028ee:    491e        .I      LDR      r1,[pc,#120] ; [0x8002968] = 0x2000001c
        0x080028f0:    6008        .`      STR      r0,[r1,#0]
        0x080028f2:    f7feff3b    ..;.    BL       bsp_spiTransfer ; 0x800176c
        0x080028f6:    2400        .$      MOVS     r4,#0
        0x080028f8:    e008        ..      B        0x800290c ; sf_CmpData + 156
        0x080028fa:    f8161b01    ....    LDRB     r1,[r6],#1
        0x080028fe:    481c        .H      LDR      r0,[pc,#112] ; [0x8002970] = 0x20001244
        0x08002900:    5d00        .]      LDRB     r0,[r0,r4]
        0x08002902:    4281        .B      CMP      r1,r0
        0x08002904:    d000        ..      BEQ      0x8002908 ; sf_CmpData + 152
        0x08002906:    e027        '.      B        0x8002958 ; sf_CmpData + 232
        0x08002908:    1c60        `.      ADDS     r0,r4,#1
        0x0800290a:    b284        ..      UXTH     r4,r0
        0x0800290c:    f5b45f80    ..._    CMP      r4,#0x1000
        0x08002910:    dbf3        ..      BLT      0x80028fa ; sf_CmpData + 138
        0x08002912:    f1090001    ....    ADD      r0,r9,#1
        0x08002916:    fa1ff980    ....    UXTH     r9,r0
        0x0800291a:    ebb93f17    ...?    CMP      r9,r7,LSR #12
        0x0800291e:    d3e4        ..      BCC      0x80028ea ; sf_CmpData + 122
        0x08002920:    f3c7080b    ....    UBFX     r8,r7,#0,#12
        0x08002924:    f1b80f00    ....    CMP      r8,#0
        0x08002928:    dd11        ..      BLE      0x800294e ; sf_CmpData + 222
        0x0800292a:    480f        .H      LDR      r0,[pc,#60] ; [0x8002968] = 0x2000001c
        0x0800292c:    f8c08000    ....    STR      r8,[r0,#0]
        0x08002930:    f7feff1c    ....    BL       bsp_spiTransfer ; 0x800176c
        0x08002934:    2400        .$      MOVS     r4,#0
        0x08002936:    e008        ..      B        0x800294a ; sf_CmpData + 218
        0x08002938:    f8161b01    ....    LDRB     r1,[r6],#1
        0x0800293c:    480c        .H      LDR      r0,[pc,#48] ; [0x8002970] = 0x20001244
        0x0800293e:    5d00        .]      LDRB     r0,[r0,r4]
        0x08002940:    4281        .B      CMP      r1,r0
        0x08002942:    d000        ..      BEQ      0x8002946 ; sf_CmpData + 214
        0x08002944:    e008        ..      B        0x8002958 ; sf_CmpData + 232
        0x08002946:    1c60        `.      ADDS     r0,r4,#1
        0x08002948:    b284        ..      UXTH     r4,r0
        0x0800294a:    4544        DE      CMP      r4,r8
        0x0800294c:    dbf4        ..      BLT      0x8002938 ; sf_CmpData + 200
        0x0800294e:    2001        .       MOVS     r0,#1
        0x08002950:    f000fa84    ....    BL       sf_SetCS ; 0x8002e5c
        0x08002954:    2000        .       MOVS     r0,#0
        0x08002956:    e796        ..      B        0x8002886 ; sf_CmpData + 22
        0x08002958:    2001        .       MOVS     r0,#1
        0x0800295a:    f000fa7f    ....    BL       sf_SetCS ; 0x8002e5c
        0x0800295e:    2001        .       MOVS     r0,#1
        0x08002960:    e791        ..      B        0x8002886 ; sf_CmpData + 22
    $d
        0x08002962:    0000        ..      DCW    0
        0x08002964:    20002244    D".     DCD    536879684
        0x08002968:    2000001c    ...     DCD    536870940
        0x0800296c:    20000244    D..     DCD    536871492
        0x08002970:    20001244    D..     DCD    536875588
    $t
    i.sf_EraseSector
    sf_EraseSector
        0x08002974:    b510        ..      PUSH     {r4,lr}
        0x08002976:    4604        .F      MOV      r4,r0
        0x08002978:    f000fb5e    ..^.    BL       sf_WriteEnable ; 0x8003038
        0x0800297c:    2000        .       MOVS     r0,#0
        0x0800297e:    f000fa6d    ..m.    BL       sf_SetCS ; 0x8002e5c
        0x08002982:    2000        .       MOVS     r0,#0
        0x08002984:    4915        .I      LDR      r1,[pc,#84] ; [0x80029dc] = 0x2000001c
        0x08002986:    6008        .`      STR      r0,[r1,#0]
        0x08002988:    2120         !      MOVS     r1,#0x20
        0x0800298a:    4814        .H      LDR      r0,[pc,#80] ; [0x80029dc] = 0x2000001c
        0x0800298c:    6802        .h      LDR      r2,[r0,#0]
        0x0800298e:    6800        .h      LDR      r0,[r0,#0]
        0x08002990:    1c40        @.      ADDS     r0,r0,#1
        0x08002992:    4b12        .K      LDR      r3,[pc,#72] ; [0x80029dc] = 0x2000001c
        0x08002994:    6018        .`      STR      r0,[r3,#0]
        0x08002996:    4812        .H      LDR      r0,[pc,#72] ; [0x80029e0] = 0x20000244
        0x08002998:    5481        .T      STRB     r1,[r0,r2]
        0x0800299a:    f3c44207    ...B    UBFX     r2,r4,#16,#8
        0x0800299e:    4618        .F      MOV      r0,r3
        0x080029a0:    6801        .h      LDR      r1,[r0,#0]
        0x080029a2:    6800        .h      LDR      r0,[r0,#0]
        0x080029a4:    1c40        @.      ADDS     r0,r0,#1
        0x080029a6:    6018        .`      STR      r0,[r3,#0]
        0x080029a8:    480d        .H      LDR      r0,[pc,#52] ; [0x80029e0] = 0x20000244
        0x080029aa:    5442        BT      STRB     r2,[r0,r1]
        0x080029ac:    f3c42207    ..."    UBFX     r2,r4,#8,#8
        0x080029b0:    4618        .F      MOV      r0,r3
        0x080029b2:    6801        .h      LDR      r1,[r0,#0]
        0x080029b4:    6800        .h      LDR      r0,[r0,#0]
        0x080029b6:    1c40        @.      ADDS     r0,r0,#1
        0x080029b8:    6018        .`      STR      r0,[r3,#0]
        0x080029ba:    4809        .H      LDR      r0,[pc,#36] ; [0x80029e0] = 0x20000244
        0x080029bc:    5442        BT      STRB     r2,[r0,r1]
        0x080029be:    4618        .F      MOV      r0,r3
        0x080029c0:    6801        .h      LDR      r1,[r0,#0]
        0x080029c2:    6800        .h      LDR      r0,[r0,#0]
        0x080029c4:    1c40        @.      ADDS     r0,r0,#1
        0x080029c6:    6018        .`      STR      r0,[r3,#0]
        0x080029c8:    4805        .H      LDR      r0,[pc,#20] ; [0x80029e0] = 0x20000244
        0x080029ca:    5444        DT      STRB     r4,[r0,r1]
        0x080029cc:    f7fefece    ....    BL       bsp_spiTransfer ; 0x800176c
        0x080029d0:    2001        .       MOVS     r0,#1
        0x080029d2:    f000fa43    ..C.    BL       sf_SetCS ; 0x8002e5c
        0x080029d6:    f000fa55    ..U.    BL       sf_WaitForWriteEnd ; 0x8002e84
        0x080029da:    bd10        ..      POP      {r4,pc}
    $d
        0x080029dc:    2000001c    ...     DCD    536870940
        0x080029e0:    20000244    D..     DCD    536871492
    $t
    i.sf_NeedErase
    sf_NeedErase
        0x080029e4:    b570        p.      PUSH     {r4-r6,lr}
        0x080029e6:    4603        .F      MOV      r3,r0
        0x080029e8:    2400        .$      MOVS     r4,#0
        0x080029ea:    e00b        ..      B        0x8002a04 ; sf_NeedErase + 32
        0x080029ec:    f8135b01    ...[    LDRB     r5,[r3],#1
        0x080029f0:    43e8        .C      MVNS     r0,r5
        0x080029f2:    b2c5        ..      UXTB     r5,r0
        0x080029f4:    f8110b01    ....    LDRB     r0,[r1],#1
        0x080029f8:    4028        (@      ANDS     r0,r0,r5
        0x080029fa:    b108        ..      CBZ      r0,0x8002a00 ; sf_NeedErase + 28
        0x080029fc:    2001        .       MOVS     r0,#1
        0x080029fe:    bd70        p.      POP      {r4-r6,pc}
        0x08002a00:    1c60        `.      ADDS     r0,r4,#1
        0x08002a02:    b284        ..      UXTH     r4,r0
        0x08002a04:    4294        .B      CMP      r4,r2
        0x08002a06:    dbf1        ..      BLT      0x80029ec ; sf_NeedErase + 8
        0x08002a08:    2000        .       MOVS     r0,#0
        0x08002a0a:    e7f8        ..      B        0x80029fe ; sf_NeedErase + 26
    i.sf_PageWrite
    sf_PageWrite
        0x08002a0c:    e92d41f0    -..A    PUSH     {r4-r8,lr}
        0x08002a10:    4604        .F      MOV      r4,r0
        0x08002a12:    460e        .F      MOV      r6,r1
        0x08002a14:    4615        .F      MOV      r5,r2
        0x08002a16:    4881        .H      LDR      r0,[pc,#516] ; [0x8002c1c] = 0x20002244
        0x08002a18:    6800        .h      LDR      r0,[r0,#0]
        0x08002a1a:    4981        .I      LDR      r1,[pc,#516] ; [0x8002c20] = 0xbf2541
        0x08002a1c:    4288        .B      CMP      r0,r1
        0x08002a1e:    d17d        }.      BNE      0x8002b1c ; sf_PageWrite + 272
        0x08002a20:    2d02        .-      CMP      r5,#2
        0x08002a22:    da08        ..      BGE      0x8002a36 ; sf_PageWrite + 42
        0x08002a24:    4628        (F      MOV      r0,r5
        0x08002a26:    eb0571d0    ...q    ADD      r1,r5,r0,LSR #31
        0x08002a2a:    1049        I.      ASRS     r1,r1,#1
        0x08002a2c:    eba50141    ..A.    SUB      r1,r5,r1,LSL #1
        0x08002a30:    b109        ..      CBZ      r1,0x8002a36 ; sf_PageWrite + 42
        0x08002a32:    e8bd81f0    ....    POP      {r4-r8,pc}
        0x08002a36:    f000faff    ....    BL       sf_WriteEnable ; 0x8003038
        0x08002a3a:    2000        .       MOVS     r0,#0
        0x08002a3c:    f000fa0e    ....    BL       sf_SetCS ; 0x8002e5c
        0x08002a40:    2000        .       MOVS     r0,#0
        0x08002a42:    4978        xI      LDR      r1,[pc,#480] ; [0x8002c24] = 0x2000001c
        0x08002a44:    6008        .`      STR      r0,[r1,#0]
        0x08002a46:    21ad        .!      MOVS     r1,#0xad
        0x08002a48:    4876        vH      LDR      r0,[pc,#472] ; [0x8002c24] = 0x2000001c
        0x08002a4a:    6802        .h      LDR      r2,[r0,#0]
        0x08002a4c:    6800        .h      LDR      r0,[r0,#0]
        0x08002a4e:    1c40        @.      ADDS     r0,r0,#1
        0x08002a50:    4b74        tK      LDR      r3,[pc,#464] ; [0x8002c24] = 0x2000001c
        0x08002a52:    6018        .`      STR      r0,[r3,#0]
        0x08002a54:    4874        tH      LDR      r0,[pc,#464] ; [0x8002c28] = 0x20000244
        0x08002a56:    5481        .T      STRB     r1,[r0,r2]
        0x08002a58:    f3c64107    ...A    UBFX     r1,r6,#16,#8
        0x08002a5c:    4618        .F      MOV      r0,r3
        0x08002a5e:    6802        .h      LDR      r2,[r0,#0]
        0x08002a60:    6800        .h      LDR      r0,[r0,#0]
        0x08002a62:    1c40        @.      ADDS     r0,r0,#1
        0x08002a64:    6018        .`      STR      r0,[r3,#0]
        0x08002a66:    4870        pH      LDR      r0,[pc,#448] ; [0x8002c28] = 0x20000244
        0x08002a68:    5481        .T      STRB     r1,[r0,r2]
        0x08002a6a:    f3c62107    ...!    UBFX     r1,r6,#8,#8
        0x08002a6e:    4618        .F      MOV      r0,r3
        0x08002a70:    6802        .h      LDR      r2,[r0,#0]
        0x08002a72:    6800        .h      LDR      r0,[r0,#0]
        0x08002a74:    1c40        @.      ADDS     r0,r0,#1
        0x08002a76:    6018        .`      STR      r0,[r3,#0]
        0x08002a78:    486b        kH      LDR      r0,[pc,#428] ; [0x8002c28] = 0x20000244
        0x08002a7a:    5481        .T      STRB     r1,[r0,r2]
        0x08002a7c:    4618        .F      MOV      r0,r3
        0x08002a7e:    6802        .h      LDR      r2,[r0,#0]
        0x08002a80:    6800        .h      LDR      r0,[r0,#0]
        0x08002a82:    1c40        @.      ADDS     r0,r0,#1
        0x08002a84:    6018        .`      STR      r0,[r3,#0]
        0x08002a86:    4868        hH      LDR      r0,[pc,#416] ; [0x8002c28] = 0x20000244
        0x08002a88:    5486        .T      STRB     r6,[r0,r2]
        0x08002a8a:    f8141b01    ....    LDRB     r1,[r4],#1
        0x08002a8e:    4618        .F      MOV      r0,r3
        0x08002a90:    6802        .h      LDR      r2,[r0,#0]
        0x08002a92:    6800        .h      LDR      r0,[r0,#0]
        0x08002a94:    1c40        @.      ADDS     r0,r0,#1
        0x08002a96:    6018        .`      STR      r0,[r3,#0]
        0x08002a98:    4863        cH      LDR      r0,[pc,#396] ; [0x8002c28] = 0x20000244
        0x08002a9a:    5481        .T      STRB     r1,[r0,r2]
        0x08002a9c:    f8141b01    ....    LDRB     r1,[r4],#1
        0x08002aa0:    4618        .F      MOV      r0,r3
        0x08002aa2:    6802        .h      LDR      r2,[r0,#0]
        0x08002aa4:    6800        .h      LDR      r0,[r0,#0]
        0x08002aa6:    1c40        @.      ADDS     r0,r0,#1
        0x08002aa8:    6018        .`      STR      r0,[r3,#0]
        0x08002aaa:    485f        _H      LDR      r0,[pc,#380] ; [0x8002c28] = 0x20000244
        0x08002aac:    5481        .T      STRB     r1,[r0,r2]
        0x08002aae:    f7fefe5d    ..].    BL       bsp_spiTransfer ; 0x800176c
        0x08002ab2:    2001        .       MOVS     r0,#1
        0x08002ab4:    f000f9d2    ....    BL       sf_SetCS ; 0x8002e5c
        0x08002ab8:    f000f9e4    ....    BL       sf_WaitForWriteEnd ; 0x8002e84
        0x08002abc:    1ea8        ..      SUBS     r0,r5,#2
        0x08002abe:    b285        ..      UXTH     r5,r0
        0x08002ac0:    2700        .'      MOVS     r7,#0
        0x08002ac2:    e028        (.      B        0x8002b16 ; sf_PageWrite + 266
        0x08002ac4:    2000        .       MOVS     r0,#0
        0x08002ac6:    f000f9c9    ....    BL       sf_SetCS ; 0x8002e5c
        0x08002aca:    2000        .       MOVS     r0,#0
        0x08002acc:    4955        UI      LDR      r1,[pc,#340] ; [0x8002c24] = 0x2000001c
        0x08002ace:    6008        .`      STR      r0,[r1,#0]
        0x08002ad0:    21ad        .!      MOVS     r1,#0xad
        0x08002ad2:    4854        TH      LDR      r0,[pc,#336] ; [0x8002c24] = 0x2000001c
        0x08002ad4:    6802        .h      LDR      r2,[r0,#0]
        0x08002ad6:    6800        .h      LDR      r0,[r0,#0]
        0x08002ad8:    1c40        @.      ADDS     r0,r0,#1
        0x08002ada:    4b52        RK      LDR      r3,[pc,#328] ; [0x8002c24] = 0x2000001c
        0x08002adc:    6018        .`      STR      r0,[r3,#0]
        0x08002ade:    4852        RH      LDR      r0,[pc,#328] ; [0x8002c28] = 0x20000244
        0x08002ae0:    5481        .T      STRB     r1,[r0,r2]
        0x08002ae2:    f8141b01    ....    LDRB     r1,[r4],#1
        0x08002ae6:    4618        .F      MOV      r0,r3
        0x08002ae8:    6802        .h      LDR      r2,[r0,#0]
        0x08002aea:    6800        .h      LDR      r0,[r0,#0]
        0x08002aec:    1c40        @.      ADDS     r0,r0,#1
        0x08002aee:    6018        .`      STR      r0,[r3,#0]
        0x08002af0:    484d        MH      LDR      r0,[pc,#308] ; [0x8002c28] = 0x20000244
        0x08002af2:    5481        .T      STRB     r1,[r0,r2]
        0x08002af4:    f8141b01    ....    LDRB     r1,[r4],#1
        0x08002af8:    4618        .F      MOV      r0,r3
        0x08002afa:    6802        .h      LDR      r2,[r0,#0]
        0x08002afc:    6800        .h      LDR      r0,[r0,#0]
        0x08002afe:    1c40        @.      ADDS     r0,r0,#1
        0x08002b00:    6018        .`      STR      r0,[r3,#0]
        0x08002b02:    4849        IH      LDR      r0,[pc,#292] ; [0x8002c28] = 0x20000244
        0x08002b04:    5481        .T      STRB     r1,[r0,r2]
        0x08002b06:    f7fefe31    ..1.    BL       bsp_spiTransfer ; 0x800176c
        0x08002b0a:    2001        .       MOVS     r0,#1
        0x08002b0c:    f000f9a6    ....    BL       sf_SetCS ; 0x8002e5c
        0x08002b10:    f000f9b8    ....    BL       sf_WaitForWriteEnd ; 0x8002e84
        0x08002b14:    1c7f        ..      ADDS     r7,r7,#1
        0x08002b16:    eb0571d5    ...q    ADD      r1,r5,r5,LSR #31
        0x08002b1a:    e000        ..      B        0x8002b1e ; sf_PageWrite + 274
        0x08002b1c:    e019        ..      B        0x8002b52 ; sf_PageWrite + 326
        0x08002b1e:    ebb70f61    ..a.    CMP      r7,r1,ASR #1
        0x08002b22:    d3cf        ..      BCC      0x8002ac4 ; sf_PageWrite + 184
        0x08002b24:    2000        .       MOVS     r0,#0
        0x08002b26:    f000f999    ....    BL       sf_SetCS ; 0x8002e5c
        0x08002b2a:    2000        .       MOVS     r0,#0
        0x08002b2c:    493d        =I      LDR      r1,[pc,#244] ; [0x8002c24] = 0x2000001c
        0x08002b2e:    6008        .`      STR      r0,[r1,#0]
        0x08002b30:    2104        .!      MOVS     r1,#4
        0x08002b32:    483c        <H      LDR      r0,[pc,#240] ; [0x8002c24] = 0x2000001c
        0x08002b34:    6802        .h      LDR      r2,[r0,#0]
        0x08002b36:    6800        .h      LDR      r0,[r0,#0]
        0x08002b38:    1c40        @.      ADDS     r0,r0,#1
        0x08002b3a:    4b3a        :K      LDR      r3,[pc,#232] ; [0x8002c24] = 0x2000001c
        0x08002b3c:    6018        .`      STR      r0,[r3,#0]
        0x08002b3e:    483a        :H      LDR      r0,[pc,#232] ; [0x8002c28] = 0x20000244
        0x08002b40:    5481        .T      STRB     r1,[r0,r2]
        0x08002b42:    f7fefe13    ....    BL       bsp_spiTransfer ; 0x800176c
        0x08002b46:    2001        .       MOVS     r0,#1
        0x08002b48:    f000f988    ....    BL       sf_SetCS ; 0x8002e5c
        0x08002b4c:    f000f99a    ....    BL       sf_WaitForWriteEnd ; 0x8002e84
        0x08002b50:    e062        b.      B        0x8002c18 ; sf_PageWrite + 524
        0x08002b52:    f04f0800    O...    MOV      r8,#0
        0x08002b56:    e043        C.      B        0x8002be0 ; sf_PageWrite + 468
        0x08002b58:    f000fa6e    ..n.    BL       sf_WriteEnable ; 0x8003038
        0x08002b5c:    2000        .       MOVS     r0,#0
        0x08002b5e:    f000f97d    ..}.    BL       sf_SetCS ; 0x8002e5c
        0x08002b62:    2000        .       MOVS     r0,#0
        0x08002b64:    492f        /I      LDR      r1,[pc,#188] ; [0x8002c24] = 0x2000001c
        0x08002b66:    6008        .`      STR      r0,[r1,#0]
        0x08002b68:    2102        .!      MOVS     r1,#2
        0x08002b6a:    482e        .H      LDR      r0,[pc,#184] ; [0x8002c24] = 0x2000001c
        0x08002b6c:    6802        .h      LDR      r2,[r0,#0]
        0x08002b6e:    6800        .h      LDR      r0,[r0,#0]
        0x08002b70:    1c40        @.      ADDS     r0,r0,#1
        0x08002b72:    4b2c        ,K      LDR      r3,[pc,#176] ; [0x8002c24] = 0x2000001c
        0x08002b74:    6018        .`      STR      r0,[r3,#0]
        0x08002b76:    482c        ,H      LDR      r0,[pc,#176] ; [0x8002c28] = 0x20000244
        0x08002b78:    5481        .T      STRB     r1,[r0,r2]
        0x08002b7a:    f3c64107    ...A    UBFX     r1,r6,#16,#8
        0x08002b7e:    4618        .F      MOV      r0,r3
        0x08002b80:    6802        .h      LDR      r2,[r0,#0]
        0x08002b82:    6800        .h      LDR      r0,[r0,#0]
        0x08002b84:    1c40        @.      ADDS     r0,r0,#1
        0x08002b86:    6018        .`      STR      r0,[r3,#0]
        0x08002b88:    4827        'H      LDR      r0,[pc,#156] ; [0x8002c28] = 0x20000244
        0x08002b8a:    5481        .T      STRB     r1,[r0,r2]
        0x08002b8c:    f3c62107    ...!    UBFX     r1,r6,#8,#8
        0x08002b90:    4618        .F      MOV      r0,r3
        0x08002b92:    6802        .h      LDR      r2,[r0,#0]
        0x08002b94:    6800        .h      LDR      r0,[r0,#0]
        0x08002b96:    1c40        @.      ADDS     r0,r0,#1
        0x08002b98:    6018        .`      STR      r0,[r3,#0]
        0x08002b9a:    4823        #H      LDR      r0,[pc,#140] ; [0x8002c28] = 0x20000244
        0x08002b9c:    5481        .T      STRB     r1,[r0,r2]
        0x08002b9e:    4618        .F      MOV      r0,r3
        0x08002ba0:    6802        .h      LDR      r2,[r0,#0]
        0x08002ba2:    6800        .h      LDR      r0,[r0,#0]
        0x08002ba4:    1c40        @.      ADDS     r0,r0,#1
        0x08002ba6:    6018        .`      STR      r0,[r3,#0]
        0x08002ba8:    481f        .H      LDR      r0,[pc,#124] ; [0x8002c28] = 0x20000244
        0x08002baa:    5486        .T      STRB     r6,[r0,r2]
        0x08002bac:    2700        .'      MOVS     r7,#0
        0x08002bae:    e00a        ..      B        0x8002bc6 ; sf_PageWrite + 442
        0x08002bb0:    f8141b01    ....    LDRB     r1,[r4],#1
        0x08002bb4:    481b        .H      LDR      r0,[pc,#108] ; [0x8002c24] = 0x2000001c
        0x08002bb6:    6802        .h      LDR      r2,[r0,#0]
        0x08002bb8:    6800        .h      LDR      r0,[r0,#0]
        0x08002bba:    1c40        @.      ADDS     r0,r0,#1
        0x08002bbc:    4b19        .K      LDR      r3,[pc,#100] ; [0x8002c24] = 0x2000001c
        0x08002bbe:    6018        .`      STR      r0,[r3,#0]
        0x08002bc0:    4819        .H      LDR      r0,[pc,#100] ; [0x8002c28] = 0x20000244
        0x08002bc2:    5481        .T      STRB     r1,[r0,r2]
        0x08002bc4:    1c7f        ..      ADDS     r7,r7,#1
        0x08002bc6:    2fff        ./      CMP      r7,#0xff
        0x08002bc8:    d9f2        ..      BLS      0x8002bb0 ; sf_PageWrite + 420
        0x08002bca:    f7fefdcf    ....    BL       bsp_spiTransfer ; 0x800176c
        0x08002bce:    2001        .       MOVS     r0,#1
        0x08002bd0:    f000f944    ..D.    BL       sf_SetCS ; 0x8002e5c
        0x08002bd4:    f000f956    ..V.    BL       sf_WaitForWriteEnd ; 0x8002e84
        0x08002bd8:    f5067680    ...v    ADD      r6,r6,#0x100
        0x08002bdc:    f1080801    ....    ADD      r8,r8,#1
        0x08002be0:    17e9        ..      ASRS     r1,r5,#31
        0x08002be2:    eb056111    ...a    ADD      r1,r5,r1,LSR #24
        0x08002be6:    ebb82f21    ..!/    CMP      r8,r1,ASR #8
        0x08002bea:    d3b5        ..      BCC      0x8002b58 ; sf_PageWrite + 332
        0x08002bec:    2000        .       MOVS     r0,#0
        0x08002bee:    f000f935    ..5.    BL       sf_SetCS ; 0x8002e5c
        0x08002bf2:    2000        .       MOVS     r0,#0
        0x08002bf4:    490b        .I      LDR      r1,[pc,#44] ; [0x8002c24] = 0x2000001c
        0x08002bf6:    6008        .`      STR      r0,[r1,#0]
        0x08002bf8:    2104        .!      MOVS     r1,#4
        0x08002bfa:    480a        .H      LDR      r0,[pc,#40] ; [0x8002c24] = 0x2000001c
        0x08002bfc:    6802        .h      LDR      r2,[r0,#0]
        0x08002bfe:    6800        .h      LDR      r0,[r0,#0]
        0x08002c00:    1c40        @.      ADDS     r0,r0,#1
        0x08002c02:    4b08        .K      LDR      r3,[pc,#32] ; [0x8002c24] = 0x2000001c
        0x08002c04:    6018        .`      STR      r0,[r3,#0]
        0x08002c06:    4808        .H      LDR      r0,[pc,#32] ; [0x8002c28] = 0x20000244
        0x08002c08:    5481        .T      STRB     r1,[r0,r2]
        0x08002c0a:    f7fefdaf    ....    BL       bsp_spiTransfer ; 0x800176c
        0x08002c0e:    2001        .       MOVS     r0,#1
        0x08002c10:    f000f924    ..$.    BL       sf_SetCS ; 0x8002e5c
        0x08002c14:    f000f936    ..6.    BL       sf_WaitForWriteEnd ; 0x8002e84
        0x08002c18:    bf00        ..      NOP      
        0x08002c1a:    e70a        ..      B        0x8002a32 ; sf_PageWrite + 38
    $d
        0x08002c1c:    20002244    D".     DCD    536879684
        0x08002c20:    00bf2541    A%..    DCD    12526913
        0x08002c24:    2000001c    ...     DCD    536870940
        0x08002c28:    20000244    D..     DCD    536871492
    $t
    i.sf_ReadBuffer
    sf_ReadBuffer
        0x08002c2c:    e92d41f0    -..A    PUSH     {r4-r8,lr}
        0x08002c30:    4680        .F      MOV      r8,r0
        0x08002c32:    460c        .F      MOV      r4,r1
        0x08002c34:    4615        .F      MOV      r5,r2
        0x08002c36:    b125        %.      CBZ      r5,0x8002c42 ; sf_ReadBuffer + 22
        0x08002c38:    1960        `.      ADDS     r0,r4,r5
        0x08002c3a:    492b        +I      LDR      r1,[pc,#172] ; [0x8002ce8] = 0x20002244
        0x08002c3c:    6949        Ii      LDR      r1,[r1,#0x14]
        0x08002c3e:    4288        .B      CMP      r0,r1
        0x08002c40:    d901        ..      BLS      0x8002c46 ; sf_ReadBuffer + 26
        0x08002c42:    e8bd81f0    ....    POP      {r4-r8,pc}
        0x08002c46:    2000        .       MOVS     r0,#0
        0x08002c48:    f000f908    ....    BL       sf_SetCS ; 0x8002e5c
        0x08002c4c:    2000        .       MOVS     r0,#0
        0x08002c4e:    4927        'I      LDR      r1,[pc,#156] ; [0x8002cec] = 0x2000001c
        0x08002c50:    6008        .`      STR      r0,[r1,#0]
        0x08002c52:    2103        .!      MOVS     r1,#3
        0x08002c54:    4825        %H      LDR      r0,[pc,#148] ; [0x8002cec] = 0x2000001c
        0x08002c56:    6802        .h      LDR      r2,[r0,#0]
        0x08002c58:    6800        .h      LDR      r0,[r0,#0]
        0x08002c5a:    1c40        @.      ADDS     r0,r0,#1
        0x08002c5c:    4b23        #K      LDR      r3,[pc,#140] ; [0x8002cec] = 0x2000001c
        0x08002c5e:    6018        .`      STR      r0,[r3,#0]
        0x08002c60:    4823        #H      LDR      r0,[pc,#140] ; [0x8002cf0] = 0x20000244
        0x08002c62:    5481        .T      STRB     r1,[r0,r2]
        0x08002c64:    f3c44107    ...A    UBFX     r1,r4,#16,#8
        0x08002c68:    4618        .F      MOV      r0,r3
        0x08002c6a:    6802        .h      LDR      r2,[r0,#0]
        0x08002c6c:    6800        .h      LDR      r0,[r0,#0]
        0x08002c6e:    1c40        @.      ADDS     r0,r0,#1
        0x08002c70:    6018        .`      STR      r0,[r3,#0]
        0x08002c72:    481f        .H      LDR      r0,[pc,#124] ; [0x8002cf0] = 0x20000244
        0x08002c74:    5481        .T      STRB     r1,[r0,r2]
        0x08002c76:    f3c42207    ..."    UBFX     r2,r4,#8,#8
        0x08002c7a:    4618        .F      MOV      r0,r3
        0x08002c7c:    6801        .h      LDR      r1,[r0,#0]
        0x08002c7e:    6800        .h      LDR      r0,[r0,#0]
        0x08002c80:    1c40        @.      ADDS     r0,r0,#1
        0x08002c82:    6018        .`      STR      r0,[r3,#0]
        0x08002c84:    481a        .H      LDR      r0,[pc,#104] ; [0x8002cf0] = 0x20000244
        0x08002c86:    5442        BT      STRB     r2,[r0,r1]
        0x08002c88:    4618        .F      MOV      r0,r3
        0x08002c8a:    6802        .h      LDR      r2,[r0,#0]
        0x08002c8c:    6800        .h      LDR      r0,[r0,#0]
        0x08002c8e:    1c40        @.      ADDS     r0,r0,#1
        0x08002c90:    6018        .`      STR      r0,[r3,#0]
        0x08002c92:    4817        .H      LDR      r0,[pc,#92] ; [0x8002cf0] = 0x20000244
        0x08002c94:    5484        .T      STRB     r4,[r0,r2]
        0x08002c96:    f7fefd69    ..i.    BL       bsp_spiTransfer ; 0x800176c
        0x08002c9a:    2700        .'      MOVS     r7,#0
        0x08002c9c:    e00f        ..      B        0x8002cbe ; sf_ReadBuffer + 146
        0x08002c9e:    f44f5080    O..P    MOV      r0,#0x1000
        0x08002ca2:    4912        .I      LDR      r1,[pc,#72] ; [0x8002cec] = 0x2000001c
        0x08002ca4:    6008        .`      STR      r0,[r1,#0]
        0x08002ca6:    f7fefd61    ..a.    BL       bsp_spiTransfer ; 0x800176c
        0x08002caa:    f44f5280    O..R    MOV      r2,#0x1000
        0x08002cae:    4911        .I      LDR      r1,[pc,#68] ; [0x8002cf4] = 0x20001244
        0x08002cb0:    4640        @F      MOV      r0,r8
        0x08002cb2:    f7fdfa99    ....    BL       __aeabi_memcpy ; 0x80001e8
        0x08002cb6:    f5085880    ...X    ADD      r8,r8,#0x1000
        0x08002cba:    1c78        x.      ADDS     r0,r7,#1
        0x08002cbc:    b287        ..      UXTH     r7,r0
        0x08002cbe:    ebb73f15    ...?    CMP      r7,r5,LSR #12
        0x08002cc2:    d3ec        ..      BCC      0x8002c9e ; sf_ReadBuffer + 114
        0x08002cc4:    f3c5060b    ....    UBFX     r6,r5,#0,#12
        0x08002cc8:    2e00        ..      CMP      r6,#0
        0x08002cca:    dd08        ..      BLE      0x8002cde ; sf_ReadBuffer + 178
        0x08002ccc:    4807        .H      LDR      r0,[pc,#28] ; [0x8002cec] = 0x2000001c
        0x08002cce:    6006        .`      STR      r6,[r0,#0]
        0x08002cd0:    f7fefd4c    ..L.    BL       bsp_spiTransfer ; 0x800176c
        0x08002cd4:    4632        2F      MOV      r2,r6
        0x08002cd6:    4907        .I      LDR      r1,[pc,#28] ; [0x8002cf4] = 0x20001244
        0x08002cd8:    4640        @F      MOV      r0,r8
        0x08002cda:    f7fdfa85    ....    BL       __aeabi_memcpy ; 0x80001e8
        0x08002cde:    2001        .       MOVS     r0,#1
        0x08002ce0:    f000f8bc    ....    BL       sf_SetCS ; 0x8002e5c
        0x08002ce4:    bf00        ..      NOP      
        0x08002ce6:    e7ac        ..      B        0x8002c42 ; sf_ReadBuffer + 22
    $d
        0x08002ce8:    20002244    D".     DCD    536879684
        0x08002cec:    2000001c    ...     DCD    536870940
        0x08002cf0:    20000244    D..     DCD    536871492
        0x08002cf4:    20001244    D..     DCD    536875588
    $t
    i.sf_ReadID
    sf_ReadID
        0x08002cf8:    e92d41f0    -..A    PUSH     {r4-r8,lr}
        0x08002cfc:    2000        .       MOVS     r0,#0
        0x08002cfe:    f000f8ad    ....    BL       sf_SetCS ; 0x8002e5c
        0x08002d02:    2000        .       MOVS     r0,#0
        0x08002d04:    490c        .I      LDR      r1,[pc,#48] ; [0x8002d38] = 0x2000001c
        0x08002d06:    6008        .`      STR      r0,[r1,#0]
        0x08002d08:    209f        .       MOVS     r0,#0x9f
        0x08002d0a:    490c        .I      LDR      r1,[pc,#48] ; [0x8002d3c] = 0x20000244
        0x08002d0c:    7008        .p      STRB     r0,[r1,#0]
        0x08002d0e:    2004        .       MOVS     r0,#4
        0x08002d10:    4909        .I      LDR      r1,[pc,#36] ; [0x8002d38] = 0x2000001c
        0x08002d12:    6008        .`      STR      r0,[r1,#0]
        0x08002d14:    f7fefd2a    ..*.    BL       bsp_spiTransfer ; 0x800176c
        0x08002d18:    4809        .H      LDR      r0,[pc,#36] ; [0x8002d40] = 0x20001244
        0x08002d1a:    7845        Ex      LDRB     r5,[r0,#1]
        0x08002d1c:    7886        .x      LDRB     r6,[r0,#2]
        0x08002d1e:    78c7        .x      LDRB     r7,[r0,#3]
        0x08002d20:    2001        .       MOVS     r0,#1
        0x08002d22:    f000f89b    ....    BL       sf_SetCS ; 0x8002e5c
        0x08002d26:    0428        (.      LSLS     r0,r5,#16
        0x08002d28:    ea402006    @..     ORR      r0,r0,r6,LSL #8
        0x08002d2c:    ea400407    @...    ORR      r4,r0,r7
        0x08002d30:    4620         F      MOV      r0,r4
        0x08002d32:    e8bd81f0    ....    POP      {r4-r8,pc}
    $d
        0x08002d36:    0000        ..      DCW    0
        0x08002d38:    2000001c    ...     DCD    536870940
        0x08002d3c:    20000244    D..     DCD    536871492
        0x08002d40:    20001244    D..     DCD    536875588
    $t
    i.sf_ReadInfo
    sf_ReadInfo
        0x08002d44:    b510        ..      PUSH     {r4,lr}
        0x08002d46:    f7ffffd7    ....    BL       sf_ReadID ; 0x8002cf8
        0x08002d4a:    4930        0I      LDR      r1,[pc,#192] ; [0x8002e0c] = 0x20002244
        0x08002d4c:    6008        .`      STR      r0,[r1,#0]
        0x08002d4e:    4608        .F      MOV      r0,r1
        0x08002d50:    6800        .h      LDR      r0,[r0,#0]
        0x08002d52:    4a2f        /J      LDR      r2,[pc,#188] ; [0x8002e10] = 0xef4016
        0x08002d54:    1a81        ..      SUBS     r1,r0,r2
        0x08002d56:    4290        .B      CMP      r0,r2
        0x08002d58:    d025        %.      BEQ      0x8002da6 ; sf_ReadInfo + 98
        0x08002d5a:    dc07        ..      BGT      0x8002d6c ; sf_ReadInfo + 40
        0x08002d5c:    492d        -I      LDR      r1,[pc,#180] ; [0x8002e14] = 0xff40dabf
        0x08002d5e:    4408        .D      ADD      r0,r0,r1
        0x08002d60:    b148        H.      CBZ      r0,0x8002d76 ; sf_ReadInfo + 50
        0x08002d62:    492d        -I      LDR      r1,[pc,#180] ; [0x8002e18] = 0xfffd052c
        0x08002d64:    4408        .D      ADD      r0,r0,r1
        0x08002d66:    2800        .(      CMP      r0,#0
        0x08002d68:    d141        A.      BNE      0x8002dee ; sf_ReadInfo + 170
        0x08002d6a:    e010        ..      B        0x8002d8e ; sf_ReadInfo + 74
        0x08002d6c:    2901        .)      CMP      r1,#1
        0x08002d6e:    d026        &.      BEQ      0x8002dbe ; sf_ReadInfo + 122
        0x08002d70:    2902        .)      CMP      r1,#2
        0x08002d72:    d13c        <.      BNE      0x8002dee ; sf_ReadInfo + 170
        0x08002d74:    e02f        /.      B        0x8002dd6 ; sf_ReadInfo + 146
        0x08002d76:    a129        ).      ADR      r1,{pc}+0xa6 ; 0x8002e1c
        0x08002d78:    4824        $H      LDR      r0,[pc,#144] ; [0x8002e0c] = 0x20002244
        0x08002d7a:    1d00        ..      ADDS     r0,r0,#4
        0x08002d7c:    f7fdfa53    ..S.    BL       strcpy ; 0x8000226
        0x08002d80:    f44f1000    O...    MOV      r0,#0x200000
        0x08002d84:    4921        !I      LDR      r1,[pc,#132] ; [0x8002e0c] = 0x20002244
        0x08002d86:    6148        Ha      STR      r0,[r1,#0x14]
        0x08002d88:    1240        @.      ASRS     r0,r0,#9
        0x08002d8a:    8308        ..      STRH     r0,[r1,#0x18]
        0x08002d8c:    e03b        ;.      B        0x8002e06 ; sf_ReadInfo + 194
        0x08002d8e:    a126        &.      ADR      r1,{pc}+0x9a ; 0x8002e28
        0x08002d90:    481e        .H      LDR      r0,[pc,#120] ; [0x8002e0c] = 0x20002244
        0x08002d92:    1d00        ..      ADDS     r0,r0,#4
        0x08002d94:    f7fdfa47    ..G.    BL       strcpy ; 0x8000226
        0x08002d98:    f44f1000    O...    MOV      r0,#0x200000
        0x08002d9c:    491b        .I      LDR      r1,[pc,#108] ; [0x8002e0c] = 0x20002244
        0x08002d9e:    6148        Ha      STR      r0,[r1,#0x14]
        0x08002da0:    1240        @.      ASRS     r0,r0,#9
        0x08002da2:    8308        ..      STRH     r0,[r1,#0x18]
        0x08002da4:    e02f        /.      B        0x8002e06 ; sf_ReadInfo + 194
        0x08002da6:    a123        #.      ADR      r1,{pc}+0x8e ; 0x8002e34
        0x08002da8:    4818        .H      LDR      r0,[pc,#96] ; [0x8002e0c] = 0x20002244
        0x08002daa:    1d00        ..      ADDS     r0,r0,#4
        0x08002dac:    f7fdfa3b    ..;.    BL       strcpy ; 0x8000226
        0x08002db0:    f44f0080    O...    MOV      r0,#0x400000
        0x08002db4:    4915        .I      LDR      r1,[pc,#84] ; [0x8002e0c] = 0x20002244
        0x08002db6:    6148        Ha      STR      r0,[r1,#0x14]
        0x08002db8:    1280        ..      ASRS     r0,r0,#10
        0x08002dba:    8308        ..      STRH     r0,[r1,#0x18]
        0x08002dbc:    e023        #.      B        0x8002e06 ; sf_ReadInfo + 194
        0x08002dbe:    a11f        ..      ADR      r1,{pc}+0x7e ; 0x8002e3c
        0x08002dc0:    4812        .H      LDR      r0,[pc,#72] ; [0x8002e0c] = 0x20002244
        0x08002dc2:    1d00        ..      ADDS     r0,r0,#4
        0x08002dc4:    f7fdfa2f    ../.    BL       strcpy ; 0x8000226
        0x08002dc8:    f44f0000    O...    MOV      r0,#0x800000
        0x08002dcc:    490f        .I      LDR      r1,[pc,#60] ; [0x8002e0c] = 0x20002244
        0x08002dce:    6148        Ha      STR      r0,[r1,#0x14]
        0x08002dd0:    12c0        ..      ASRS     r0,r0,#11
        0x08002dd2:    8308        ..      STRH     r0,[r1,#0x18]
        0x08002dd4:    e017        ..      B        0x8002e06 ; sf_ReadInfo + 194
        0x08002dd6:    a11b        ..      ADR      r1,{pc}+0x6e ; 0x8002e44
        0x08002dd8:    480c        .H      LDR      r0,[pc,#48] ; [0x8002e0c] = 0x20002244
        0x08002dda:    1d00        ..      ADDS     r0,r0,#4
        0x08002ddc:    f7fdfa23    ..#.    BL       strcpy ; 0x8000226
        0x08002de0:    f04f7080    O..p    MOV      r0,#0x1000000
        0x08002de4:    4909        .I      LDR      r1,[pc,#36] ; [0x8002e0c] = 0x20002244
        0x08002de6:    6148        Ha      STR      r0,[r1,#0x14]
        0x08002de8:    1300        ..      ASRS     r0,r0,#12
        0x08002dea:    8308        ..      STRH     r0,[r1,#0x18]
        0x08002dec:    e00b        ..      B        0x8002e06 ; sf_ReadInfo + 194
        0x08002dee:    a117        ..      ADR      r1,{pc}+0x5e ; 0x8002e4c
        0x08002df0:    4806        .H      LDR      r0,[pc,#24] ; [0x8002e0c] = 0x20002244
        0x08002df2:    1d00        ..      ADDS     r0,r0,#4
        0x08002df4:    f7fdfa17    ....    BL       strcpy ; 0x8000226
        0x08002df8:    f44f1000    O...    MOV      r0,#0x200000
        0x08002dfc:    4903        .I      LDR      r1,[pc,#12] ; [0x8002e0c] = 0x20002244
        0x08002dfe:    6148        Ha      STR      r0,[r1,#0x14]
        0x08002e00:    1240        @.      ASRS     r0,r0,#9
        0x08002e02:    8308        ..      STRH     r0,[r1,#0x18]
        0x08002e04:    bf00        ..      NOP      
        0x08002e06:    bf00        ..      NOP      
        0x08002e08:    bd10        ..      POP      {r4,pc}
    $d
        0x08002e0a:    0000        ..      DCW    0
        0x08002e0c:    20002244    D".     DCD    536879684
        0x08002e10:    00ef4016    .@..    DCD    15679510
        0x08002e14:    ff40dabf    ..@.    DCD    4282440383
        0x08002e18:    fffd052c    ,...    DCD    4294772012
        0x08002e1c:    32545353    SST2    DCD    844387155
        0x08002e20:    30465635    5VF0    DCD    809915957
        0x08002e24:    00423631    16B.    DCD    4339249
        0x08002e28:    3532584d    MX25    DCD    892491853
        0x08002e2c:    3036314c    L160    DCD    808857932
        0x08002e30:    00004536    6E..    DCD    17718
        0x08002e34:    51353257    W25Q    DCD    1362440791
        0x08002e38:    00003233    32..    DCD    12851
        0x08002e3c:    51353257    W25Q    DCD    1362440791
        0x08002e40:    00003436    64..    DCD    13366
        0x08002e44:    51353257    W25Q    DCD    1362440791
        0x08002e48:    00383231    128.    DCD    3682865
        0x08002e4c:    6e6b6e55    Unkn    DCD    1852534357
        0x08002e50:    4620776f    ow F    DCD    1176532847
        0x08002e54:    6873616c    lash    DCD    1752392044
        0x08002e58:    00000000    ....    DCD    0
    $t
    i.sf_SetCS
    sf_SetCS
        0x08002e5c:    b510        ..      PUSH     {r4,lr}
        0x08002e5e:    4604        .F      MOV      r4,r0
        0x08002e60:    b934        4.      CBNZ     r4,0x8002e70 ; sf_SetCS + 20
        0x08002e62:    f7fefbf7    ....    BL       bsp_SpiBusEnter ; 0x8001654
        0x08002e66:    2180        .!      MOVS     r1,#0x80
        0x08002e68:    4805        .H      LDR      r0,[pc,#20] ; [0x8002e80] = 0x40020c00
        0x08002e6a:    f7fff89c    ....    BL       gpio_bit_reset ; 0x8001fa6
        0x08002e6e:    e005        ..      B        0x8002e7c ; sf_SetCS + 32
        0x08002e70:    2180        .!      MOVS     r1,#0x80
        0x08002e72:    4803        .H      LDR      r0,[pc,#12] ; [0x8002e80] = 0x40020c00
        0x08002e74:    f7fff899    ....    BL       gpio_bit_set ; 0x8001faa
        0x08002e78:    f7fefbf2    ....    BL       bsp_SpiBusExit ; 0x8001660
        0x08002e7c:    bd10        ..      POP      {r4,pc}
    $d
        0x08002e7e:    0000        ..      DCW    0
        0x08002e80:    40020c00    ...@    DCD    1073875968
    $t
    i.sf_WaitForWriteEnd
    sf_WaitForWriteEnd
        0x08002e84:    b510        ..      PUSH     {r4,lr}
        0x08002e86:    2000        .       MOVS     r0,#0
        0x08002e88:    f7ffffe8    ....    BL       sf_SetCS ; 0x8002e5c
        0x08002e8c:    2005        .       MOVS     r0,#5
        0x08002e8e:    4912        .I      LDR      r1,[pc,#72] ; [0x8002ed8] = 0x20000244
        0x08002e90:    7008        .p      STRB     r0,[r1,#0]
        0x08002e92:    2002        .       MOVS     r0,#2
        0x08002e94:    4911        .I      LDR      r1,[pc,#68] ; [0x8002edc] = 0x2000001c
        0x08002e96:    6008        .`      STR      r0,[r1,#0]
        0x08002e98:    f7fefc68    ..h.    BL       bsp_spiTransfer ; 0x800176c
        0x08002e9c:    2001        .       MOVS     r0,#1
        0x08002e9e:    f7ffffdd    ....    BL       sf_SetCS ; 0x8002e5c
        0x08002ea2:    e015        ..      B        0x8002ed0 ; sf_WaitForWriteEnd + 76
        0x08002ea4:    2000        .       MOVS     r0,#0
        0x08002ea6:    f7ffffd9    ....    BL       sf_SetCS ; 0x8002e5c
        0x08002eaa:    2005        .       MOVS     r0,#5
        0x08002eac:    490a        .I      LDR      r1,[pc,#40] ; [0x8002ed8] = 0x20000244
        0x08002eae:    7008        .p      STRB     r0,[r1,#0]
        0x08002eb0:    2000        .       MOVS     r0,#0
        0x08002eb2:    7048        Hp      STRB     r0,[r1,#1]
        0x08002eb4:    2002        .       MOVS     r0,#2
        0x08002eb6:    4909        .I      LDR      r1,[pc,#36] ; [0x8002edc] = 0x2000001c
        0x08002eb8:    6008        .`      STR      r0,[r1,#0]
        0x08002eba:    f7fefc57    ..W.    BL       bsp_spiTransfer ; 0x800176c
        0x08002ebe:    2001        .       MOVS     r0,#1
        0x08002ec0:    f7ffffcc    ....    BL       sf_SetCS ; 0x8002e5c
        0x08002ec4:    4806        .H      LDR      r0,[pc,#24] ; [0x8002ee0] = 0x20001244
        0x08002ec6:    7840        @x      LDRB     r0,[r0,#1]
        0x08002ec8:    f0000001    ....    AND      r0,r0,#1
        0x08002ecc:    b900        ..      CBNZ     r0,0x8002ed0 ; sf_WaitForWriteEnd + 76
        0x08002ece:    e000        ..      B        0x8002ed2 ; sf_WaitForWriteEnd + 78
        0x08002ed0:    e7e8        ..      B        0x8002ea4 ; sf_WaitForWriteEnd + 32
        0x08002ed2:    bf00        ..      NOP      
        0x08002ed4:    bd10        ..      POP      {r4,pc}
    $d
        0x08002ed6:    0000        ..      DCW    0
        0x08002ed8:    20000244    D..     DCD    536871492
        0x08002edc:    2000001c    ...     DCD    536870940
        0x08002ee0:    20001244    D..     DCD    536875588
    $t
    i.sf_WriteBuffer
    sf_WriteBuffer
        0x08002ee4:    e92d5ff0    -.._    PUSH     {r4-r12,lr}
        0x08002ee8:    4607        .F      MOV      r7,r0
        0x08002eea:    460e        .F      MOV      r6,r1
        0x08002eec:    4615        .F      MOV      r5,r2
        0x08002eee:    f04f0900    O...    MOV      r9,#0
        0x08002ef2:    46c8        .F      MOV      r8,r9
        0x08002ef4:    46c2        .F      MOV      r10,r8
        0x08002ef6:    2400        .$      MOVS     r4,#0
        0x08002ef8:    46a3        .F      MOV      r11,r4
        0x08002efa:    484e        NH      LDR      r0,[pc,#312] ; [0x8003034] = 0x20002244
        0x08002efc:    8b00        ..      LDRH     r0,[r0,#0x18]
        0x08002efe:    fbb6f1f0    ....    UDIV     r1,r6,r0
        0x08002f02:    fb006a11    ...j    MLS      r10,r0,r1,r6
        0x08002f06:    484b        KH      LDR      r0,[pc,#300] ; [0x8003034] = 0x20002244
        0x08002f08:    8b00        ..      LDRH     r0,[r0,#0x18]
        0x08002f0a:    eba0040a    ....    SUB      r4,r0,r10
        0x08002f0e:    4849        IH      LDR      r0,[pc,#292] ; [0x8003034] = 0x20002244
        0x08002f10:    8b00        ..      LDRH     r0,[r0,#0x18]
        0x08002f12:    fbb5f9f0    ....    UDIV     r9,r5,r0
        0x08002f16:    4847        GH      LDR      r0,[pc,#284] ; [0x8003034] = 0x20002244
        0x08002f18:    8b00        ..      LDRH     r0,[r0,#0x18]
        0x08002f1a:    fbb5f1f0    ....    UDIV     r1,r5,r0
        0x08002f1e:    fb005811    ...X    MLS      r8,r0,r1,r5
        0x08002f22:    f1ba0f00    ....    CMP      r10,#0
        0x08002f26:    d129        ).      BNE      0x8002f7c ; sf_WriteBuffer + 152
        0x08002f28:    f1b90f00    ....    CMP      r9,#0
        0x08002f2c:    d108        ..      BNE      0x8002f40 ; sf_WriteBuffer + 92
        0x08002f2e:    b2aa        ..      UXTH     r2,r5
        0x08002f30:    4631        1F      MOV      r1,r6
        0x08002f32:    4638        8F      MOV      r0,r7
        0x08002f34:    f7fffc12    ....    BL       sf_AutoWriteSector ; 0x800275c
        0x08002f38:    2800        .(      CMP      r0,#0
        0x08002f3a:    d178        x.      BNE      0x800302e ; sf_WriteBuffer + 330
        0x08002f3c:    e8bd9ff0    ....    POP      {r4-r12,pc}
        0x08002f40:    e00e        ..      B        0x8002f60 ; sf_WriteBuffer + 124
        0x08002f42:    483c        <H      LDR      r0,[pc,#240] ; [0x8003034] = 0x20002244
        0x08002f44:    8b02        ..      LDRH     r2,[r0,#0x18]
        0x08002f46:    4631        1F      MOV      r1,r6
        0x08002f48:    4638        8F      MOV      r0,r7
        0x08002f4a:    f7fffc07    ....    BL       sf_AutoWriteSector ; 0x800275c
        0x08002f4e:    b908        ..      CBNZ     r0,0x8002f54 ; sf_WriteBuffer + 112
        0x08002f50:    2000        .       MOVS     r0,#0
        0x08002f52:    e7f3        ..      B        0x8002f3c ; sf_WriteBuffer + 88
        0x08002f54:    4837        7H      LDR      r0,[pc,#220] ; [0x8003034] = 0x20002244
        0x08002f56:    8b00        ..      LDRH     r0,[r0,#0x18]
        0x08002f58:    4406        .D      ADD      r6,r6,r0
        0x08002f5a:    4836        6H      LDR      r0,[pc,#216] ; [0x8003034] = 0x20002244
        0x08002f5c:    8b00        ..      LDRH     r0,[r0,#0x18]
        0x08002f5e:    4407        .D      ADD      r7,r7,r0
        0x08002f60:    f1b90000    ....    SUBS     r0,r9,#0
        0x08002f64:    f1a90901    ....    SUB      r9,r9,#1
        0x08002f68:    d1eb        ..      BNE      0x8002f42 ; sf_WriteBuffer + 94
        0x08002f6a:    fa1ff288    ....    UXTH     r2,r8
        0x08002f6e:    4631        1F      MOV      r1,r6
        0x08002f70:    4638        8F      MOV      r0,r7
        0x08002f72:    f7fffbf3    ....    BL       sf_AutoWriteSector ; 0x800275c
        0x08002f76:    2800        .(      CMP      r0,#0
        0x08002f78:    d159        Y.      BNE      0x800302e ; sf_WriteBuffer + 330
        0x08002f7a:    e7df        ..      B        0x8002f3c ; sf_WriteBuffer + 88
        0x08002f7c:    f1b90f00    ....    CMP      r9,#0
        0x08002f80:    d11e        ..      BNE      0x8002fc0 ; sf_WriteBuffer + 220
        0x08002f82:    45a0        .E      CMP      r8,r4
        0x08002f84:    d914        ..      BLS      0x8002fb0 ; sf_WriteBuffer + 204
        0x08002f86:    eba80b04    ....    SUB      r11,r8,r4
        0x08002f8a:    b2a2        ..      UXTH     r2,r4
        0x08002f8c:    4631        1F      MOV      r1,r6
        0x08002f8e:    4638        8F      MOV      r0,r7
        0x08002f90:    f7fffbe4    ....    BL       sf_AutoWriteSector ; 0x800275c
        0x08002f94:    b908        ..      CBNZ     r0,0x8002f9a ; sf_WriteBuffer + 182
        0x08002f96:    2000        .       MOVS     r0,#0
        0x08002f98:    e7d0        ..      B        0x8002f3c ; sf_WriteBuffer + 88
        0x08002f9a:    4426        &D      ADD      r6,r6,r4
        0x08002f9c:    4427        'D      ADD      r7,r7,r4
        0x08002f9e:    fa1ff28b    ....    UXTH     r2,r11
        0x08002fa2:    4631        1F      MOV      r1,r6
        0x08002fa4:    4638        8F      MOV      r0,r7
        0x08002fa6:    f7fffbd9    ....    BL       sf_AutoWriteSector ; 0x800275c
        0x08002faa:    2800        .(      CMP      r0,#0
        0x08002fac:    d13f        ?.      BNE      0x800302e ; sf_WriteBuffer + 330
        0x08002fae:    e7c5        ..      B        0x8002f3c ; sf_WriteBuffer + 88
        0x08002fb0:    b2aa        ..      UXTH     r2,r5
        0x08002fb2:    4631        1F      MOV      r1,r6
        0x08002fb4:    4638        8F      MOV      r0,r7
        0x08002fb6:    f7fffbd1    ....    BL       sf_AutoWriteSector ; 0x800275c
        0x08002fba:    bbb8        ..      CBNZ     r0,0x800302c ; sf_WriteBuffer + 328
        0x08002fbc:    2000        .       MOVS     r0,#0
        0x08002fbe:    e7bd        ..      B        0x8002f3c ; sf_WriteBuffer + 88
        0x08002fc0:    1b2d        -.      SUBS     r5,r5,r4
        0x08002fc2:    481c        .H      LDR      r0,[pc,#112] ; [0x8003034] = 0x20002244
        0x08002fc4:    8b00        ..      LDRH     r0,[r0,#0x18]
        0x08002fc6:    fbb5f9f0    ....    UDIV     r9,r5,r0
        0x08002fca:    481a        .H      LDR      r0,[pc,#104] ; [0x8003034] = 0x20002244
        0x08002fcc:    8b00        ..      LDRH     r0,[r0,#0x18]
        0x08002fce:    fbb5f1f0    ....    UDIV     r1,r5,r0
        0x08002fd2:    fb005811    ...X    MLS      r8,r0,r1,r5
        0x08002fd6:    b2a2        ..      UXTH     r2,r4
        0x08002fd8:    4631        1F      MOV      r1,r6
        0x08002fda:    4638        8F      MOV      r0,r7
        0x08002fdc:    f7fffbbe    ....    BL       sf_AutoWriteSector ; 0x800275c
        0x08002fe0:    b908        ..      CBNZ     r0,0x8002fe6 ; sf_WriteBuffer + 258
        0x08002fe2:    2000        .       MOVS     r0,#0
        0x08002fe4:    e7aa        ..      B        0x8002f3c ; sf_WriteBuffer + 88
        0x08002fe6:    4426        &D      ADD      r6,r6,r4
        0x08002fe8:    4427        'D      ADD      r7,r7,r4
        0x08002fea:    e00e        ..      B        0x800300a ; sf_WriteBuffer + 294
        0x08002fec:    4811        .H      LDR      r0,[pc,#68] ; [0x8003034] = 0x20002244
        0x08002fee:    8b02        ..      LDRH     r2,[r0,#0x18]
        0x08002ff0:    4631        1F      MOV      r1,r6
        0x08002ff2:    4638        8F      MOV      r0,r7
        0x08002ff4:    f7fffbb2    ....    BL       sf_AutoWriteSector ; 0x800275c
        0x08002ff8:    b908        ..      CBNZ     r0,0x8002ffe ; sf_WriteBuffer + 282
        0x08002ffa:    2000        .       MOVS     r0,#0
        0x08002ffc:    e79e        ..      B        0x8002f3c ; sf_WriteBuffer + 88
        0x08002ffe:    480d        .H      LDR      r0,[pc,#52] ; [0x8003034] = 0x20002244
        0x08003000:    8b00        ..      LDRH     r0,[r0,#0x18]
        0x08003002:    4406        .D      ADD      r6,r6,r0
        0x08003004:    480b        .H      LDR      r0,[pc,#44] ; [0x8003034] = 0x20002244
        0x08003006:    8b00        ..      LDRH     r0,[r0,#0x18]
        0x08003008:    4407        .D      ADD      r7,r7,r0
        0x0800300a:    f1b90000    ....    SUBS     r0,r9,#0
        0x0800300e:    f1a90901    ....    SUB      r9,r9,#1
        0x08003012:    d1eb        ..      BNE      0x8002fec ; sf_WriteBuffer + 264
        0x08003014:    f1b80f00    ....    CMP      r8,#0
        0x08003018:    d009        ..      BEQ      0x800302e ; sf_WriteBuffer + 330
        0x0800301a:    fa1ff288    ....    UXTH     r2,r8
        0x0800301e:    4631        1F      MOV      r1,r6
        0x08003020:    4638        8F      MOV      r0,r7
        0x08003022:    f7fffb9b    ....    BL       sf_AutoWriteSector ; 0x800275c
        0x08003026:    b908        ..      CBNZ     r0,0x800302c ; sf_WriteBuffer + 328
        0x08003028:    2000        .       MOVS     r0,#0
        0x0800302a:    e787        ..      B        0x8002f3c ; sf_WriteBuffer + 88
        0x0800302c:    e7ff        ..      B        0x800302e ; sf_WriteBuffer + 330
        0x0800302e:    2001        .       MOVS     r0,#1
        0x08003030:    e784        ..      B        0x8002f3c ; sf_WriteBuffer + 88
    $d
        0x08003032:    0000        ..      DCW    0
        0x08003034:    20002244    D".     DCD    536879684
    $t
    i.sf_WriteEnable
    sf_WriteEnable
        0x08003038:    b510        ..      PUSH     {r4,lr}
        0x0800303a:    2000        .       MOVS     r0,#0
        0x0800303c:    f7ffff0e    ....    BL       sf_SetCS ; 0x8002e5c
        0x08003040:    2000        .       MOVS     r0,#0
        0x08003042:    4908        .I      LDR      r1,[pc,#32] ; [0x8003064] = 0x2000001c
        0x08003044:    6008        .`      STR      r0,[r1,#0]
        0x08003046:    2106        .!      MOVS     r1,#6
        0x08003048:    4806        .H      LDR      r0,[pc,#24] ; [0x8003064] = 0x2000001c
        0x0800304a:    6802        .h      LDR      r2,[r0,#0]
        0x0800304c:    6800        .h      LDR      r0,[r0,#0]
        0x0800304e:    1c40        @.      ADDS     r0,r0,#1
        0x08003050:    4b04        .K      LDR      r3,[pc,#16] ; [0x8003064] = 0x2000001c
        0x08003052:    6018        .`      STR      r0,[r3,#0]
        0x08003054:    4804        .H      LDR      r0,[pc,#16] ; [0x8003068] = 0x20000244
        0x08003056:    5481        .T      STRB     r1,[r0,r2]
        0x08003058:    f7fefb88    ....    BL       bsp_spiTransfer ; 0x800176c
        0x0800305c:    2001        .       MOVS     r0,#1
        0x0800305e:    f7fffefd    ....    BL       sf_SetCS ; 0x8002e5c
        0x08003062:    bd10        ..      POP      {r4,pc}
    $d
        0x08003064:    2000001c    ...     DCD    536870940
        0x08003068:    20000244    D..     DCD    536871492
    $t
    i.spi_dma_enable
    spi_dma_enable
        0x0800306c:    b921        !.      CBNZ     r1,0x8003078 ; spi_dma_enable + 12
        0x0800306e:    6842        Bh      LDR      r2,[r0,#4]
        0x08003070:    f0420202    B...    ORR      r2,r2,#2
        0x08003074:    6042        B`      STR      r2,[r0,#4]
        0x08003076:    e003        ..      B        0x8003080 ; spi_dma_enable + 20
        0x08003078:    6842        Bh      LDR      r2,[r0,#4]
        0x0800307a:    f0420201    B...    ORR      r2,r2,#1
        0x0800307e:    6042        B`      STR      r2,[r0,#4]
        0x08003080:    4770        pG      BX       lr
    i.spi_enable
    spi_enable
        0x08003082:    6801        .h      LDR      r1,[r0,#0]
        0x08003084:    f0410140    A.@.    ORR      r1,r1,#0x40
        0x08003088:    6001        .`      STR      r1,[r0,#0]
        0x0800308a:    4770        pG      BX       lr
    i.spi_i2s_data_receive
    spi_i2s_data_receive
        0x0800308c:    4601        .F      MOV      r1,r0
        0x0800308e:    68c8        .h      LDR      r0,[r1,#0xc]
        0x08003090:    b280        ..      UXTH     r0,r0
        0x08003092:    4770        pG      BX       lr
    i.spi_init
    spi_init
        0x08003094:    4602        .F      MOV      r2,r0
        0x08003096:    2000        .       MOVS     r0,#0
        0x08003098:    6810        .h      LDR      r0,[r2,#0]
        0x0800309a:    f4005041    ..AP    AND      r0,r0,#0x3040
        0x0800309e:    680b        .h      LDR      r3,[r1,#0]
        0x080030a0:    4318        .C      ORRS     r0,r0,r3
        0x080030a2:    684b        Kh      LDR      r3,[r1,#4]
        0x080030a4:    4318        .C      ORRS     r0,r0,r3
        0x080030a6:    688b        .h      LDR      r3,[r1,#8]
        0x080030a8:    4318        .C      ORRS     r0,r0,r3
        0x080030aa:    68cb        .h      LDR      r3,[r1,#0xc]
        0x080030ac:    4318        .C      ORRS     r0,r0,r3
        0x080030ae:    690b        .i      LDR      r3,[r1,#0x10]
        0x080030b0:    4318        .C      ORRS     r0,r0,r3
        0x080030b2:    694b        Ki      LDR      r3,[r1,#0x14]
        0x080030b4:    4318        .C      ORRS     r0,r0,r3
        0x080030b6:    698b        .i      LDR      r3,[r1,#0x18]
        0x080030b8:    4318        .C      ORRS     r0,r0,r3
        0x080030ba:    6010        .`      STR      r0,[r2,#0]
        0x080030bc:    69d3        .i      LDR      r3,[r2,#0x1c]
        0x080030be:    f4236300    #..c    BIC      r3,r3,#0x800
        0x080030c2:    61d3        .a      STR      r3,[r2,#0x1c]
        0x080030c4:    4770        pG      BX       lr
    i.sys_msr_msp
    sys_msr_msp
        0x080030c6:    bf00        ..      NOP      
        0x080030c8:    f3808808    ....    MSR      MSP,r0
        0x080030cc:    bf00        ..      NOP      
        0x080030ce:    4770        pG      BX       lr
    i.sys_nvic_set_vector_table
    sys_nvic_set_vector_table
        0x080030d0:    0a4a        J.      LSRS     r2,r1,#9
        0x080030d2:    0252        R.      LSLS     r2,r2,#9
        0x080030d4:    4302        .C      ORRS     r2,r2,r0
        0x080030d6:    4b01        .K      LDR      r3,[pc,#4] ; [0x80030dc] = 0xe000ed08
        0x080030d8:    601a        .`      STR      r2,[r3,#0]
        0x080030da:    4770        pG      BX       lr
    $d
        0x080030dc:    e000ed08    ....    DCD    3758157064
    $t
    i.system_clock_240m_25m_hxtal
    system_clock_240m_25m_hxtal
        0x080030e0:    b508        ..      PUSH     {r3,lr}
        0x080030e2:    2000        .       MOVS     r0,#0
        0x080030e4:    2100        .!      MOVS     r1,#0
        0x080030e6:    4a3f        ?J      LDR      r2,[pc,#252] ; [0x80031e4] = 0x40023800
        0x080030e8:    6812        .h      LDR      r2,[r2,#0]
        0x080030ea:    f4423280    B..2    ORR      r2,r2,#0x10000
        0x080030ee:    4b3d        =K      LDR      r3,[pc,#244] ; [0x80031e4] = 0x40023800
        0x080030f0:    601a        .`      STR      r2,[r3,#0]
        0x080030f2:    bf00        ..      NOP      
        0x080030f4:    1c40        @.      ADDS     r0,r0,#1
        0x080030f6:    4a3b        ;J      LDR      r2,[pc,#236] ; [0x80031e4] = 0x40023800
        0x080030f8:    6812        .h      LDR      r2,[r2,#0]
        0x080030fa:    f4023100    ...1    AND      r1,r2,#0x20000
        0x080030fe:    b919        ..      CBNZ     r1,0x8003108 ; system_clock_240m_25m_hxtal + 40
        0x08003100:    f64f72ff    O..r    MOV      r2,#0xffff
        0x08003104:    4290        .B      CMP      r0,r2
        0x08003106:    d1f5        ..      BNE      0x80030f4 ; system_clock_240m_25m_hxtal + 20
        0x08003108:    4a36        6J      LDR      r2,[pc,#216] ; [0x80031e4] = 0x40023800
        0x0800310a:    6812        .h      LDR      r2,[r2,#0]
        0x0800310c:    f4023200    ...2    AND      r2,r2,#0x20000
        0x08003110:    b932        2.      CBNZ     r2,0x8003120 ; system_clock_240m_25m_hxtal + 64
        0x08003112:    bf00        ..      NOP      
        0x08003114:    4a33        3J      LDR      r2,[pc,#204] ; [0x80031e4] = 0x40023800
        0x08003116:    6812        .h      LDR      r2,[r2,#0]
        0x08003118:    f4023200    ...2    AND      r2,r2,#0x20000
        0x0800311c:    2a00        .*      CMP      r2,#0
        0x0800311e:    d0f9        ..      BEQ      0x8003114 ; system_clock_240m_25m_hxtal + 52
        0x08003120:    4a30        0J      LDR      r2,[pc,#192] ; [0x80031e4] = 0x40023800
        0x08003122:    3240        @2      ADDS     r2,r2,#0x40
        0x08003124:    6812        .h      LDR      r2,[r2,#0]
        0x08003126:    f0425280    B..R    ORR      r2,r2,#0x10000000
        0x0800312a:    4b2e        .K      LDR      r3,[pc,#184] ; [0x80031e4] = 0x40023800
        0x0800312c:    3340        @3      ADDS     r3,r3,#0x40
        0x0800312e:    601a        .`      STR      r2,[r3,#0]
        0x08003130:    4a2d        -J      LDR      r2,[pc,#180] ; [0x80031e8] = 0x40007000
        0x08003132:    6812        .h      LDR      r2,[r2,#0]
        0x08003134:    f4424240    B.@B    ORR      r2,r2,#0xc000
        0x08003138:    4b2b        +K      LDR      r3,[pc,#172] ; [0x80031e8] = 0x40007000
        0x0800313a:    601a        .`      STR      r2,[r3,#0]
        0x0800313c:    4a29        )J      LDR      r2,[pc,#164] ; [0x80031e4] = 0x40023800
        0x0800313e:    3208        .2      ADDS     r2,r2,#8
        0x08003140:    6812        .h      LDR      r2,[r2,#0]
        0x08003142:    4b28        (K      LDR      r3,[pc,#160] ; [0x80031e4] = 0x40023800
        0x08003144:    3308        .3      ADDS     r3,r3,#8
        0x08003146:    601a        .`      STR      r2,[r3,#0]
        0x08003148:    461a        .F      MOV      r2,r3
        0x0800314a:    6812        .h      LDR      r2,[r2,#0]
        0x0800314c:    f4424200    B..B    ORR      r2,r2,#0x8000
        0x08003150:    601a        .`      STR      r2,[r3,#0]
        0x08003152:    461a        .F      MOV      r2,r3
        0x08003154:    6812        .h      LDR      r2,[r2,#0]
        0x08003156:    f44252a0    B..R    ORR      r2,r2,#0x1400
        0x0800315a:    601a        .`      STR      r2,[r3,#0]
        0x0800315c:    4a23        #J      LDR      r2,[pc,#140] ; [0x80031ec] = 0xa407819
        0x0800315e:    1f1b        ..      SUBS     r3,r3,#4
        0x08003160:    601a        .`      STR      r2,[r3,#0]
        0x08003162:    1f1a        ..      SUBS     r2,r3,#4
        0x08003164:    6812        .h      LDR      r2,[r2,#0]
        0x08003166:    f0427280    B..r    ORR      r2,r2,#0x1000000
        0x0800316a:    1f1b        ..      SUBS     r3,r3,#4
        0x0800316c:    601a        .`      STR      r2,[r3,#0]
        0x0800316e:    bf00        ..      NOP      
        0x08003170:    4a1c        .J      LDR      r2,[pc,#112] ; [0x80031e4] = 0x40023800
        0x08003172:    6812        .h      LDR      r2,[r2,#0]
        0x08003174:    f0027200    ...r    AND      r2,r2,#0x2000000
        0x08003178:    2a00        .*      CMP      r2,#0
        0x0800317a:    d0f9        ..      BEQ      0x8003170 ; system_clock_240m_25m_hxtal + 144
        0x0800317c:    4a1a        .J      LDR      r2,[pc,#104] ; [0x80031e8] = 0x40007000
        0x0800317e:    6812        .h      LDR      r2,[r2,#0]
        0x08003180:    f4423280    B..2    ORR      r2,r2,#0x10000
        0x08003184:    4b18        .K      LDR      r3,[pc,#96] ; [0x80031e8] = 0x40007000
        0x08003186:    601a        .`      STR      r2,[r3,#0]
        0x08003188:    bf00        ..      NOP      
        0x0800318a:    4a17        .J      LDR      r2,[pc,#92] ; [0x80031e8] = 0x40007000
        0x0800318c:    6852        Rh      LDR      r2,[r2,#4]
        0x0800318e:    f4023280    ...2    AND      r2,r2,#0x10000
        0x08003192:    2a00        .*      CMP      r2,#0
        0x08003194:    d0f9        ..      BEQ      0x800318a ; system_clock_240m_25m_hxtal + 170
        0x08003196:    4a14        .J      LDR      r2,[pc,#80] ; [0x80031e8] = 0x40007000
        0x08003198:    6812        .h      LDR      r2,[r2,#0]
        0x0800319a:    f4423200    B..2    ORR      r2,r2,#0x20000
        0x0800319e:    4b12        .K      LDR      r3,[pc,#72] ; [0x80031e8] = 0x40007000
        0x080031a0:    601a        .`      STR      r2,[r3,#0]
        0x080031a2:    bf00        ..      NOP      
        0x080031a4:    4a10        .J      LDR      r2,[pc,#64] ; [0x80031e8] = 0x40007000
        0x080031a6:    6852        Rh      LDR      r2,[r2,#4]
        0x080031a8:    f4023200    ...2    AND      r2,r2,#0x20000
        0x080031ac:    2a00        .*      CMP      r2,#0
        0x080031ae:    d0f9        ..      BEQ      0x80031a4 ; system_clock_240m_25m_hxtal + 196
        0x080031b0:    4a0c        .J      LDR      r2,[pc,#48] ; [0x80031e4] = 0x40023800
        0x080031b2:    3208        .2      ADDS     r2,r2,#8
        0x080031b4:    6812        .h      LDR      r2,[r2,#0]
        0x080031b6:    9200        ..      STR      r2,[sp,#0]
        0x080031b8:    9a00        ..      LDR      r2,[sp,#0]
        0x080031ba:    f0220203    "...    BIC      r2,r2,#3
        0x080031be:    9200        ..      STR      r2,[sp,#0]
        0x080031c0:    9a00        ..      LDR      r2,[sp,#0]
        0x080031c2:    f0420202    B...    ORR      r2,r2,#2
        0x080031c6:    9200        ..      STR      r2,[sp,#0]
        0x080031c8:    4b06        .K      LDR      r3,[pc,#24] ; [0x80031e4] = 0x40023800
        0x080031ca:    3308        .3      ADDS     r3,r3,#8
        0x080031cc:    9a00        ..      LDR      r2,[sp,#0]
        0x080031ce:    601a        .`      STR      r2,[r3,#0]
        0x080031d0:    bf00        ..      NOP      
        0x080031d2:    4a04        .J      LDR      r2,[pc,#16] ; [0x80031e4] = 0x40023800
        0x080031d4:    3208        .2      ADDS     r2,r2,#8
        0x080031d6:    6812        .h      LDR      r2,[r2,#0]
        0x080031d8:    f0020208    ....    AND      r2,r2,#8
        0x080031dc:    2a00        .*      CMP      r2,#0
        0x080031de:    d0f8        ..      BEQ      0x80031d2 ; system_clock_240m_25m_hxtal + 242
        0x080031e0:    bd08        ..      POP      {r3,pc}
    $d
        0x080031e2:    0000        ..      DCW    0
        0x080031e4:    40023800    .8.@    DCD    1073887232
        0x080031e8:    40007000    .p.@    DCD    1073770496
        0x080031ec:    0a407819    .x@.    DCD    171997209
    $t
    i.system_clock_config
    system_clock_config
        0x080031f0:    b510        ..      PUSH     {r4,lr}
        0x080031f2:    f7ffff75    ..u.    BL       system_clock_240m_25m_hxtal ; 0x80030e0
        0x080031f6:    bd10        ..      POP      {r4,pc}
    i.system_setup_function
    system_setup_function
        0x080031f8:    b510        ..      PUSH     {r4,lr}
        0x080031fa:    2100        .!      MOVS     r1,#0
        0x080031fc:    f04f6000    O..`    MOV      r0,#0x8000000
        0x08003200:    f7ffff66    ..f.    BL       sys_nvic_set_vector_table ; 0x80030d0
        0x08003204:    f000f808    ....    BL       systick_config ; 0x8003218
        0x08003208:    20f0        .       MOVS     r0,#0xf0
        0x0800320a:    f7fefafd    ....    BL       delay_init ; 0x8001808
        0x0800320e:    f44f7040    O.@p    MOV      r0,#0x300
        0x08003212:    f7fff987    ....    BL       nvic_priority_group_set ; 0x8002524
        0x08003216:    bd10        ..      POP      {r4,pc}
    i.systick_config
    systick_config
        0x08003218:    b510        ..      PUSH     {r4,lr}
        0x0800321a:    4812        .H      LDR      r0,[pc,#72] ; [0x8003264] = 0x20000004
        0x0800321c:    6800        .h      LDR      r0,[r0,#0]
        0x0800321e:    f44f717a    O.zq    MOV      r1,#0x3e8
        0x08003222:    fbb0f4f1    ....    UDIV     r4,r0,r1
        0x08003226:    1e60        `.      SUBS     r0,r4,#1
        0x08003228:    f1b07f80    ....    CMP      r0,#0x1000000
        0x0800322c:    d301        ..      BCC      0x8003232 ; systick_config + 26
        0x0800322e:    2001        .       MOVS     r0,#1
        0x08003230:    e00f        ..      B        0x8003252 ; systick_config + 58
        0x08003232:    1e60        `.      SUBS     r0,r4,#1
        0x08003234:    f04f21e0    O..!    MOV      r1,#0xe000e000
        0x08003238:    6148        Ha      STR      r0,[r1,#0x14]
        0x0800323a:    210f        .!      MOVS     r1,#0xf
        0x0800323c:    f04f30ff    O..0    MOV      r0,#0xffffffff
        0x08003240:    f7fdf972    ..r.    BL       NVIC_SetPriority ; 0x8000528
        0x08003244:    2000        .       MOVS     r0,#0
        0x08003246:    f04f21e0    O..!    MOV      r1,#0xe000e000
        0x0800324a:    6188        .a      STR      r0,[r1,#0x18]
        0x0800324c:    2007        .       MOVS     r0,#7
        0x0800324e:    6108        .a      STR      r0,[r1,#0x10]
        0x08003250:    2000        .       MOVS     r0,#0
        0x08003252:    b108        ..      CBZ      r0,0x8003258 ; systick_config + 64
        0x08003254:    bf00        ..      NOP      
        0x08003256:    e7fe        ..      B        0x8003256 ; systick_config + 62
        0x08003258:    2100        .!      MOVS     r1,#0
        0x0800325a:    1e48        H.      SUBS     r0,r1,#1
        0x0800325c:    f7fdf964    ..d.    BL       NVIC_SetPriority ; 0x8000528
        0x08003260:    bd10        ..      POP      {r4,pc}
    $d
        0x08003262:    0000        ..      DCW    0
        0x08003264:    20000004    ...     DCD    536870916
    $t
    i.timer_deinit
    timer_deinit
        0x08003268:    b510        ..      PUSH     {r4,lr}
        0x0800326a:    4604        .F      MOV      r4,r0
        0x0800326c:    495c        \I      LDR      r1,[pc,#368] ; [0x80033e0] = 0x40001c00
        0x0800326e:    1a60        `.      SUBS     r0,r4,r1
        0x08003270:    428c        .B      CMP      r4,r1
        0x08003272:    d06f        o.      BEQ      0x8003354 ; timer_deinit + 236
        0x08003274:    dc19        ..      BGT      0x80032aa ; timer_deinit + 66
        0x08003276:    495b        [I      LDR      r1,[pc,#364] ; [0x80033e4] = 0x40000c00
        0x08003278:    eba40001    ....    SUB      r0,r4,r1
        0x0800327c:    428c        .B      CMP      r4,r1
        0x0800327e:    d04e        N.      BEQ      0x800331e ; timer_deinit + 182
        0x08003280:    dc09        ..      BGT      0x8003296 ; timer_deinit + 46
        0x08003282:    f1b44f80    ...O    CMP      r4,#0x40000000
        0x08003286:    d02e        ..      BEQ      0x80032e6 ; timer_deinit + 126
        0x08003288:    4857        WH      LDR      r0,[pc,#348] ; [0x80033e8] = 0xbffffc00
        0x0800328a:    4420         D      ADD      r0,r0,r4
        0x0800328c:    b3a0        ..      CBZ      r0,0x80032f8 ; timer_deinit + 144
        0x0800328e:    f5b06f80    ...o    CMP      r0,#0x400
        0x08003292:    d172        r.      BNE      0x800337a ; timer_deinit + 274
        0x08003294:    e03a        :.      B        0x800330c ; timer_deinit + 164
        0x08003296:    f5b06f80    ...o    CMP      r0,#0x400
        0x0800329a:    d049        I.      BEQ      0x8003330 ; timer_deinit + 200
        0x0800329c:    f5b06f00    ...o    CMP      r0,#0x800
        0x080032a0:    d04f        O.      BEQ      0x8003342 ; timer_deinit + 218
        0x080032a2:    f5b06f40    ..@o    CMP      r0,#0xc00
        0x080032a6:    d1f4        ..      BNE      0x8003292 ; timer_deinit + 42
        0x080032a8:    e07b        {.      B        0x80033a2 ; timer_deinit + 314
        0x080032aa:    f5b03f92    ...?    CMP      r0,#0x12400
        0x080032ae:    d05b        [.      BEQ      0x8003368 ; timer_deinit + 256
        0x080032b0:    dc09        ..      BGT      0x80032c6 ; timer_deinit + 94
        0x080032b2:    f5b06f80    ...o    CMP      r0,#0x400
        0x080032b6:    d073        s.      BEQ      0x80033a0 ; timer_deinit + 312
        0x080032b8:    f5b04f64    ..dO    CMP      r0,#0xe400
        0x080032bc:    d00a        ..      BEQ      0x80032d4 ; timer_deinit + 108
        0x080032be:    f5b04f68    ..hO    CMP      r0,#0xe800
        0x080032c2:    d15a        Z.      BNE      0x800337a ; timer_deinit + 274
        0x080032c4:    e047        G.      B        0x8003356 ; timer_deinit + 238
        0x080032c6:    f5b03f94    ...?    CMP      r0,#0x12800
        0x080032ca:    d057        W.      BEQ      0x800337c ; timer_deinit + 276
        0x080032cc:    f5b03f96    ...?    CMP      r0,#0x12c00
        0x080032d0:    d153        S.      BNE      0x800337a ; timer_deinit + 274
        0x080032d2:    e05c        \.      B        0x800338e ; timer_deinit + 294
        0x080032d4:    f44f6010    O..`    MOV      r0,#0x900
        0x080032d8:    f7fffa0e    ....    BL       rcu_periph_reset_enable ; 0x80026f8
        0x080032dc:    f44f6010    O..`    MOV      r0,#0x900
        0x080032e0:    f7fff9f8    ....    BL       rcu_periph_reset_disable ; 0x80026d4
        0x080032e4:    e079        y.      B        0x80033da ; timer_deinit + 370
        0x080032e6:    f44f6000    O..`    MOV      r0,#0x800
        0x080032ea:    f7fffa05    ....    BL       rcu_periph_reset_enable ; 0x80026f8
        0x080032ee:    f44f6000    O..`    MOV      r0,#0x800
        0x080032f2:    f7fff9ef    ....    BL       rcu_periph_reset_disable ; 0x80026d4
        0x080032f6:    e070        p.      B        0x80033da ; timer_deinit + 370
        0x080032f8:    e7ff        ..      B        0x80032fa ; timer_deinit + 146
        0x080032fa:    f6400001    @...    MOV      r0,#0x801
        0x080032fe:    f7fff9fb    ....    BL       rcu_periph_reset_enable ; 0x80026f8
        0x08003302:    f6400001    @...    MOV      r0,#0x801
        0x08003306:    f7fff9e5    ....    BL       rcu_periph_reset_disable ; 0x80026d4
        0x0800330a:    e066        f.      B        0x80033da ; timer_deinit + 370
        0x0800330c:    f6400002    @...    MOV      r0,#0x802
        0x08003310:    f7fff9f2    ....    BL       rcu_periph_reset_enable ; 0x80026f8
        0x08003314:    f6400002    @...    MOV      r0,#0x802
        0x08003318:    f7fff9dc    ....    BL       rcu_periph_reset_disable ; 0x80026d4
        0x0800331c:    e05d        ].      B        0x80033da ; timer_deinit + 370
        0x0800331e:    f6400003    @...    MOV      r0,#0x803
        0x08003322:    f7fff9e9    ....    BL       rcu_periph_reset_enable ; 0x80026f8
        0x08003326:    f6400003    @...    MOV      r0,#0x803
        0x0800332a:    f7fff9d3    ....    BL       rcu_periph_reset_disable ; 0x80026d4
        0x0800332e:    e054        T.      B        0x80033da ; timer_deinit + 370
        0x08003330:    f6400004    @...    MOV      r0,#0x804
        0x08003334:    f7fff9e0    ....    BL       rcu_periph_reset_enable ; 0x80026f8
        0x08003338:    f6400004    @...    MOV      r0,#0x804
        0x0800333c:    f7fff9ca    ....    BL       rcu_periph_reset_disable ; 0x80026d4
        0x08003340:    e04b        K.      B        0x80033da ; timer_deinit + 370
        0x08003342:    f6400005    @...    MOV      r0,#0x805
        0x08003346:    f7fff9d7    ....    BL       rcu_periph_reset_enable ; 0x80026f8
        0x0800334a:    f6400005    @...    MOV      r0,#0x805
        0x0800334e:    f7fff9c1    ....    BL       rcu_periph_reset_disable ; 0x80026d4
        0x08003352:    e042        B.      B        0x80033da ; timer_deinit + 370
        0x08003354:    e02e        ..      B        0x80033b4 ; timer_deinit + 332
        0x08003356:    f6401001    @...    MOV      r0,#0x901
        0x0800335a:    f7fff9cd    ....    BL       rcu_periph_reset_enable ; 0x80026f8
        0x0800335e:    f6401001    @...    MOV      r0,#0x901
        0x08003362:    f7fff9b7    ....    BL       rcu_periph_reset_disable ; 0x80026d4
        0x08003366:    e038        8.      B        0x80033da ; timer_deinit + 370
        0x08003368:    f44f6011    O..`    MOV      r0,#0x910
        0x0800336c:    f7fff9c4    ....    BL       rcu_periph_reset_enable ; 0x80026f8
        0x08003370:    f44f6011    O..`    MOV      r0,#0x910
        0x08003374:    f7fff9ae    ....    BL       rcu_periph_reset_disable ; 0x80026d4
        0x08003378:    e02f        /.      B        0x80033da ; timer_deinit + 370
        0x0800337a:    e02d        -.      B        0x80033d8 ; timer_deinit + 368
        0x0800337c:    f6401011    @...    MOV      r0,#0x911
        0x08003380:    f7fff9ba    ....    BL       rcu_periph_reset_enable ; 0x80026f8
        0x08003384:    f6401011    @...    MOV      r0,#0x911
        0x08003388:    f7fff9a4    ....    BL       rcu_periph_reset_disable ; 0x80026d4
        0x0800338c:    e025        %.      B        0x80033da ; timer_deinit + 370
        0x0800338e:    f6401012    @...    MOV      r0,#0x912
        0x08003392:    f7fff9b1    ....    BL       rcu_periph_reset_enable ; 0x80026f8
        0x08003396:    f6401012    @...    MOV      r0,#0x912
        0x0800339a:    f7fff99b    ....    BL       rcu_periph_reset_disable ; 0x80026d4
        0x0800339e:    e01c        ..      B        0x80033da ; timer_deinit + 370
        0x080033a0:    e011        ..      B        0x80033c6 ; timer_deinit + 350
        0x080033a2:    f6400006    @...    MOV      r0,#0x806
        0x080033a6:    f7fff9a7    ....    BL       rcu_periph_reset_enable ; 0x80026f8
        0x080033aa:    f6400006    @...    MOV      r0,#0x806
        0x080033ae:    f7fff991    ....    BL       rcu_periph_reset_disable ; 0x80026d4
        0x080033b2:    e012        ..      B        0x80033da ; timer_deinit + 370
        0x080033b4:    f6400007    @...    MOV      r0,#0x807
        0x080033b8:    f7fff99e    ....    BL       rcu_periph_reset_enable ; 0x80026f8
        0x080033bc:    f6400007    @...    MOV      r0,#0x807
        0x080033c0:    f7fff988    ....    BL       rcu_periph_reset_disable ; 0x80026d4
        0x080033c4:    e009        ..      B        0x80033da ; timer_deinit + 370
        0x080033c6:    f6400008    @...    MOV      r0,#0x808
        0x080033ca:    f7fff995    ....    BL       rcu_periph_reset_enable ; 0x80026f8
        0x080033ce:    f6400008    @...    MOV      r0,#0x808
        0x080033d2:    f7fff97f    ....    BL       rcu_periph_reset_disable ; 0x80026d4
        0x080033d6:    e000        ..      B        0x80033da ; timer_deinit + 370
        0x080033d8:    bf00        ..      NOP      
        0x080033da:    bf00        ..      NOP      
        0x080033dc:    bd10        ..      POP      {r4,pc}
    $d
        0x080033de:    0000        ..      DCW    0
        0x080033e0:    40001c00    ...@    DCD    1073748992
        0x080033e4:    40000c00    ...@    DCD    1073744896
        0x080033e8:    bffffc00    ....    DCD    3221224448
    $t
    i.timer_enable
    timer_enable
        0x080033ec:    6801        .h      LDR      r1,[r0,#0]
        0x080033ee:    f0410101    A...    ORR      r1,r1,#1
        0x080033f2:    6001        .`      STR      r1,[r0,#0]
        0x080033f4:    4770        pG      BX       lr
        0x080033f6:    0000        ..      MOVS     r0,r0
    i.timer_init
    timer_init
        0x080033f8:    880a        ..      LDRH     r2,[r1,#0]
        0x080033fa:    6282        .b      STR      r2,[r0,#0x28]
        0x080033fc:    4a1d        .J      LDR      r2,[pc,#116] ; [0x8003474] = 0x40010000
        0x080033fe:    4290        .B      CMP      r0,r2
        0x08003400:    d00e        ..      BEQ      0x8003420 ; timer_init + 40
        0x08003402:    f1b04f80    ...O    CMP      r0,#0x40000000
        0x08003406:    d00b        ..      BEQ      0x8003420 ; timer_init + 40
        0x08003408:    4a1b        .J      LDR      r2,[pc,#108] ; [0x8003478] = 0x40000400
        0x0800340a:    4290        .B      CMP      r0,r2
        0x0800340c:    d008        ..      BEQ      0x8003420 ; timer_init + 40
        0x0800340e:    4a1b        .J      LDR      r2,[pc,#108] ; [0x800347c] = 0x40000800
        0x08003410:    4290        .B      CMP      r0,r2
        0x08003412:    d005        ..      BEQ      0x8003420 ; timer_init + 40
        0x08003414:    4a1a        .J      LDR      r2,[pc,#104] ; [0x8003480] = 0x40000c00
        0x08003416:    4290        .B      CMP      r0,r2
        0x08003418:    d002        ..      BEQ      0x8003420 ; timer_init + 40
        0x0800341a:    4a1a        .J      LDR      r2,[pc,#104] ; [0x8003484] = 0x40010400
        0x0800341c:    4290        .B      CMP      r0,r2
        0x0800341e:    d10b        ..      BNE      0x8003438 ; timer_init + 64
        0x08003420:    6802        .h      LDR      r2,[r0,#0]
        0x08003422:    f0220270    ".p.    BIC      r2,r2,#0x70
        0x08003426:    6002        .`      STR      r2,[r0,#0]
        0x08003428:    6802        .h      LDR      r2,[r0,#0]
        0x0800342a:    884b        K.      LDRH     r3,[r1,#2]
        0x0800342c:    431a        .C      ORRS     r2,r2,r3
        0x0800342e:    6002        .`      STR      r2,[r0,#0]
        0x08003430:    6802        .h      LDR      r2,[r0,#0]
        0x08003432:    888b        ..      LDRH     r3,[r1,#4]
        0x08003434:    431a        .C      ORRS     r2,r2,r3
        0x08003436:    6002        .`      STR      r2,[r0,#0]
        0x08003438:    688a        .h      LDR      r2,[r1,#8]
        0x0800343a:    62c2        .b      STR      r2,[r0,#0x2c]
        0x0800343c:    4a12        .J      LDR      r2,[pc,#72] ; [0x8003488] = 0x40001000
        0x0800343e:    4290        .B      CMP      r0,r2
        0x08003440:    d00a        ..      BEQ      0x8003458 ; timer_init + 96
        0x08003442:    4a12        .J      LDR      r2,[pc,#72] ; [0x800348c] = 0x40001400
        0x08003444:    4290        .B      CMP      r0,r2
        0x08003446:    d007        ..      BEQ      0x8003458 ; timer_init + 96
        0x08003448:    6802        .h      LDR      r2,[r0,#0]
        0x0800344a:    f4227240    ".@r    BIC      r2,r2,#0x300
        0x0800344e:    6002        .`      STR      r2,[r0,#0]
        0x08003450:    6802        .h      LDR      r2,[r0,#0]
        0x08003452:    88cb        ..      LDRH     r3,[r1,#6]
        0x08003454:    431a        .C      ORRS     r2,r2,r3
        0x08003456:    6002        .`      STR      r2,[r0,#0]
        0x08003458:    4a06        .J      LDR      r2,[pc,#24] ; [0x8003474] = 0x40010000
        0x0800345a:    4290        .B      CMP      r0,r2
        0x0800345c:    d002        ..      BEQ      0x8003464 ; timer_init + 108
        0x0800345e:    4a09        .J      LDR      r2,[pc,#36] ; [0x8003484] = 0x40010400
        0x08003460:    4290        .B      CMP      r0,r2
        0x08003462:    d101        ..      BNE      0x8003468 ; timer_init + 112
        0x08003464:    7b0a        .{      LDRB     r2,[r1,#0xc]
        0x08003466:    6302        .c      STR      r2,[r0,#0x30]
        0x08003468:    6942        Bi      LDR      r2,[r0,#0x14]
        0x0800346a:    f0420201    B...    ORR      r2,r2,#1
        0x0800346e:    6142        Ba      STR      r2,[r0,#0x14]
        0x08003470:    4770        pG      BX       lr
    $d
        0x08003472:    0000        ..      DCW    0
        0x08003474:    40010000    ...@    DCD    1073807360
        0x08003478:    40000400    ...@    DCD    1073742848
        0x0800347c:    40000800    ...@    DCD    1073743872
        0x08003480:    40000c00    ...@    DCD    1073744896
        0x08003484:    40010400    ...@    DCD    1073808384
        0x08003488:    40001000    ...@    DCD    1073745920
        0x0800348c:    40001400    ...@    DCD    1073746944
    $t
    i.timer_interrupt_enable
    timer_interrupt_enable
        0x08003490:    68c2        .h      LDR      r2,[r0,#0xc]
        0x08003492:    430a        .C      ORRS     r2,r2,r1
        0x08003494:    60c2        .`      STR      r2,[r0,#0xc]
        0x08003496:    4770        pG      BX       lr
    i.timer_interrupt_flag_clear
    timer_interrupt_flag_clear
        0x08003498:    43ca        .C      MVNS     r2,r1
        0x0800349a:    6102        .a      STR      r2,[r0,#0x10]
        0x0800349c:    4770        pG      BX       lr
    i.timer_interrupt_flag_get
    timer_interrupt_flag_get
        0x0800349e:    b510        ..      PUSH     {r4,lr}
        0x080034a0:    4602        .F      MOV      r2,r0
        0x080034a2:    2000        .       MOVS     r0,#0
        0x080034a4:    68d4        .h      LDR      r4,[r2,#0xc]
        0x080034a6:    ea040301    ....    AND      r3,r4,r1
        0x080034aa:    6914        .i      LDR      r4,[r2,#0x10]
        0x080034ac:    400c        .@      ANDS     r4,r4,r1
        0x080034ae:    b114        ..      CBZ      r4,0x80034b6 ; timer_interrupt_flag_get + 24
        0x080034b0:    b10b        ..      CBZ      r3,0x80034b6 ; timer_interrupt_flag_get + 24
        0x080034b2:    2001        .       MOVS     r0,#1
        0x080034b4:    e000        ..      B        0x80034b8 ; timer_interrupt_flag_get + 26
        0x080034b6:    2000        .       MOVS     r0,#0
        0x080034b8:    bd10        ..      POP      {r4,pc}
        0x080034ba:    0000        ..      MOVS     r0,r0
    i.update_check_function
    update_check_function
        0x080034bc:    e92d41ff    -..A    PUSH     {r0-r8,lr}
        0x080034c0:    2000        .       MOVS     r0,#0
        0x080034c2:    9000        ..      STR      r0,[sp,#0]
        0x080034c4:    9001        ..      STR      r0,[sp,#4]
        0x080034c6:    9002        ..      STR      r0,[sp,#8]
        0x080034c8:    9003        ..      STR      r0,[sp,#0xc]
        0x080034ca:    2700        .'      MOVS     r7,#0
        0x080034cc:    4680        .F      MOV      r8,r0
        0x080034ce:    2500        .%      MOVS     r5,#0
        0x080034d0:    261e        .&      MOVS     r6,#0x1e
        0x080034d2:    e00a        ..      B        0x80034ea ; update_check_function + 46
        0x080034d4:    f7fdf820    .. .    BL       FeedFwdgt ; 0x8000518
        0x080034d8:    2064        d       MOVS     r0,#0x64
        0x080034da:    f7fef99b    ....    BL       delay_ms ; 0x8001814
        0x080034de:    2101        .!      MOVS     r1,#1
        0x080034e0:    4837        7H      LDR      r0,[pc,#220] ; [0x80035c0] = 0x40020c00
        0x080034e2:    f7fefd64    ..d.    BL       gpio_input_bit_get ; 0x8001fae
        0x080034e6:    b900        ..      CBNZ     r0,0x80034ea ; update_check_function + 46
        0x080034e8:    e004        ..      B        0x80034f4 ; update_check_function + 56
        0x080034ea:    1e30        0.      SUBS     r0,r6,#0
        0x080034ec:    f1a60101    ....    SUB      r1,r6,#1
        0x080034f0:    b2ce        ..      UXTB     r6,r1
        0x080034f2:    d1ef        ..      BNE      0x80034d4 ; update_check_function + 24
        0x080034f4:    bf00        ..      NOP      
        0x080034f6:    26c8        .&      MOVS     r6,#0xc8
        0x080034f8:    e004        ..      B        0x8003504 ; update_check_function + 72
        0x080034fa:    200a        .       MOVS     r0,#0xa
        0x080034fc:    f7fef98a    ....    BL       delay_ms ; 0x8001814
        0x08003500:    f7fdf80a    ....    BL       FeedFwdgt ; 0x8000518
        0x08003504:    1e30        0.      SUBS     r0,r6,#0
        0x08003506:    f1a60101    ....    SUB      r1,r6,#1
        0x0800350a:    b2ce        ..      UXTB     r6,r1
        0x0800350c:    d1f5        ..      BNE      0x80034fa ; update_check_function + 62
        0x0800350e:    f7feff01    ....    BL       mymem_init ; 0x8002314
        0x08003512:    4668        hF      MOV      r0,sp
        0x08003514:    f7fff914    ....    BL       read_boot_update_param ; 0x8002740
        0x08003518:    9800        ..      LDR      r0,[sp,#0]
        0x0800351a:    2801        .(      CMP      r0,#1
        0x0800351c:    d00e        ..      BEQ      0x800353c ; update_check_function + 128
        0x0800351e:    a029        ).      ADR      r0,{pc}+0xa6 ; 0x80035c4
        0x08003520:    f7fdfa44    ..D.    BL       __0printf$8 ; 0x80009ac
        0x08003524:    2000        .       MOVS     r0,#0
        0x08003526:    9003        ..      STR      r0,[sp,#0xc]
        0x08003528:    4668        hF      MOV      r0,sp
        0x0800352a:    f000f9c5    ....    BL       write_boot_update_param ; 0x80038b8
        0x0800352e:    f7fcfff3    ....    BL       FeedFwdgt ; 0x8000518
        0x08003532:    4830        0H      LDR      r0,[pc,#192] ; [0x80035f4] = 0x8010000
        0x08003534:    f7fefd8c    ....    BL       iap_load_app ; 0x8002050
        0x08003538:    e8bd81ff    ....    POP      {r0-r8,pc}
        0x0800353c:    a02e        ..      ADR      r0,{pc}+0xbc ; 0x80035f8
        0x0800353e:    f7fdfa35    ..5.    BL       __0printf$8 ; 0x80009ac
        0x08003542:    2000        .       MOVS     r0,#0
        0x08003544:    9000        ..      STR      r0,[sp,#0]
        0x08003546:    4668        hF      MOV      r0,sp
        0x08003548:    f000f9b6    ....    BL       write_boot_update_param ; 0x80038b8
        0x0800354c:    9801        ..      LDR      r0,[sp,#4]
        0x0800354e:    f1000140    ..@.    ADD      r1,r0,#0x40
        0x08003552:    2000        .       MOVS     r0,#0
        0x08003554:    f7fefe94    ....    BL       mymalloc ; 0x8002280
        0x08003558:    4605        .F      MOV      r5,r0
        0x0800355a:    a02e        ..      ADR      r0,{pc}+0xba ; 0x8003614
        0x0800355c:    e9dd2101    ...!    LDRD     r2,r1,[sp,#4]
        0x08003560:    f7fdfa24    ..$.    BL       __0printf$8 ; 0x80009ac
        0x08003564:    2400        .$      MOVS     r4,#0
        0x08003566:    e01a        ..      B        0x800359e ; update_check_function + 226
        0x08003568:    f7fcffd6    ....    BL       FeedFwdgt ; 0x8000518
        0x0800356c:    b2e0        ..      UXTB     r0,r4
        0x0800356e:    f7fefdfb    ....    BL       led_show_control ; 0x8002168
        0x08003572:    4837        7H      LDR      r0,[pc,#220] ; [0x8003650] = 0x20002244
        0x08003574:    6940        @i      LDR      r0,[r0,#0x14]
        0x08003576:    f5a01080    ....    SUB      r0,r0,#0x100000
        0x0800357a:    9901        ..      LDR      r1,[sp,#4]
        0x0800357c:    fb040701    ....    MLA      r7,r4,r1,r0
        0x08003580:    4639        9F      MOV      r1,r7
        0x08003582:    4628        (F      MOV      r0,r5
        0x08003584:    9a01        ..      LDR      r2,[sp,#4]
        0x08003586:    f7fffb51    ..Q.    BL       sf_ReadBuffer ; 0x8002c2c
        0x0800358a:    491a        .I      LDR      r1,[pc,#104] ; [0x80035f4] = 0x8010000
        0x0800358c:    9801        ..      LDR      r0,[sp,#4]
        0x0800358e:    fb041800    ....    MLA      r8,r4,r0,r1
        0x08003592:    4629        )F      MOV      r1,r5
        0x08003594:    4640        @F      MOV      r0,r8
        0x08003596:    9a01        ..      LDR      r2,[sp,#4]
        0x08003598:    f7fefd82    ....    BL       iap_write_appbin ; 0x80020a0
        0x0800359c:    1c64        d.      ADDS     r4,r4,#1
        0x0800359e:    9802        ..      LDR      r0,[sp,#8]
        0x080035a0:    42a0        .B      CMP      r0,r4
        0x080035a2:    d8e1        ..      BHI      0x8003568 ; update_check_function + 172
        0x080035a4:    4629        )F      MOV      r1,r5
        0x080035a6:    2000        .       MOVS     r0,#0
        0x080035a8:    f7fefe58    ..X.    BL       myfree ; 0x800225c
        0x080035ac:    f7fcffb4    ....    BL       FeedFwdgt ; 0x8000518
        0x080035b0:    a028        (.      ADR      r0,{pc}+0xa4 ; 0x8003654
        0x080035b2:    f7fdf9fb    ....    BL       __0printf$8 ; 0x80009ac
        0x080035b6:    480f        .H      LDR      r0,[pc,#60] ; [0x80035f4] = 0x8010000
        0x080035b8:    f7fefd4a    ..J.    BL       iap_load_app ; 0x8002050
        0x080035bc:    bf00        ..      NOP      
        0x080035be:    e7bb        ..      B        0x8003538 ; update_check_function + 124
    $d
        0x080035c0:    40020c00    ...@    DCD    1073875968
        0x080035c4:    a097e60a    ....    DCD    2694309386
        0x080035c8:    e5809ce9    ....    DCD    3850411241
        0x080035cc:    bae7878d    ....    DCD    3135735693
        0x080035d0:    8cbcefa7    ....    DCD    2361192359
        0x080035d4:    e6b49be7    ....    DCD    3870596071
        0x080035d8:    89e6a58e    ....    DCD    2313594254
        0x080035dc:    8ca1e8a7    ....    DCD    2359421095
        0x080035e0:    69616d20     mai    DCD    1767992608
        0x080035e4:    a8e6206e    n ..    DCD    2833653870
        0x080035e8:    979de5a1    ....    DCD    2543707553
        0x080035ec:    2e2e2e20     ...    DCD    774778400
        0x080035f0:    0000000a    ....    DCD    10
        0x080035f4:    08010000    ....    DCD    134283264
        0x080035f8:    a789e60a    ....    DCD    2810832394
        0x080035fc:    e58ca1e8    ....    DCD    3851198952
        0x08003600:    bae7878d    ....    DCD    3135735693
        0x08003604:    8ba8e7a7    ....    DCD    2343102375
        0x08003608:    208fbae5    ...     DCD    546290405
        0x0800360c:    2e2e2e2e    ....    DCD    774778414
        0x08003610:    000a202e    . ..    DCD    663598
        0x08003614:    a789e60a    ....    DCD    2810832394
        0x08003618:    e58ca1e8    ....    DCD    3851198952
        0x0800361c:    bae7878d    ....    DCD    3135735693
        0x08003620:    828fe5a7    ....    DCD    2190468519
        0x08003624:    2cb095e6    ...,    DCD    749770214
        0x08003628:    74636573    sect    DCD    1952671091
        0x0800362c:    5f6e6f69    ion_    DCD    1601073001
        0x08003630:    6e756f63    coun    DCD    1853189987
        0x08003634:    25203a74    t: %    DCD    622869108
        0x08003638:    73202c75    u, s    DCD    1931488373
        0x0800363c:    69746365    ecti    DCD    1769235301
        0x08003640:    735f6e6f    on_s    DCD    1935634031
        0x08003644:    3a657a69    ize:    DCD    979729001
        0x08003648:    0a752520     %u.    DCD    175449376
        0x0800364c:    00000000    ....    DCD    0
        0x08003650:    20002244    D".     DCD    536879684
        0x08003654:    878de50a    ....    DCD    2274223370
        0x08003658:    e5a7bae7    ....    DCD    3852974823
        0x0800365c:    afe68cae    ....    DCD    2951122094
        0x08003660:    81bcef95    ....    DCD    2176642965
        0x08003664:    e8b3b7e8    ....    DCD    3904092136
        0x08003668:    2e20acbd    .. .    DCD    773893309
        0x0800366c:    000a2e2e    ....    DCD    667182
    $t
    i.usart_baudrate_set
    usart_baudrate_set
        0x08003670:    e92d47f0    -..G    PUSH     {r4-r10,lr}
        0x08003674:    4604        .F      MOV      r4,r0
        0x08003676:    460d        .F      MOV      r5,r1
        0x08003678:    2700        .'      MOVS     r7,#0
        0x0800367a:    46b8        .F      MOV      r8,r7
        0x0800367c:    46b9        .F      MOV      r9,r7
        0x0800367e:    2600        .&      MOVS     r6,#0
        0x08003680:    4933        3I      LDR      r1,[pc,#204] ; [0x8003750] = 0x40007800
        0x08003682:    1a60        `.      SUBS     r0,r4,r1
        0x08003684:    428c        .B      CMP      r4,r1
        0x08003686:    d035        5.      BEQ      0x80036f4 ; usart_baudrate_set + 132
        0x08003688:    dc0c        ..      BGT      0x80036a4 ; usart_baudrate_set + 52
        0x0800368a:    4832        2H      LDR      r0,[pc,#200] ; [0x8003754] = 0xbfffbc00
        0x0800368c:    4420         D      ADD      r0,r0,r4
        0x0800368e:    b1e8        ..      CBZ      r0,0x80036cc ; usart_baudrate_set + 92
        0x08003690:    f5b06f80    ...o    CMP      r0,#0x400
        0x08003694:    d01f        ..      BEQ      0x80036d6 ; usart_baudrate_set + 102
        0x08003696:    f5b06f00    ...o    CMP      r0,#0x800
        0x0800369a:    d021        !.      BEQ      0x80036e0 ; usart_baudrate_set + 112
        0x0800369c:    f5b06f40    ..@o    CMP      r0,#0xc00
        0x080036a0:    d132        2.      BNE      0x8003708 ; usart_baudrate_set + 152
        0x080036a2:    e022        ".      B        0x80036ea ; usart_baudrate_set + 122
        0x080036a4:    f5b06f80    ...o    CMP      r0,#0x400
        0x080036a8:    d029        ).      BEQ      0x80036fe ; usart_baudrate_set + 142
        0x080036aa:    f5b04f18    ...O    CMP      r0,#0x9800
        0x080036ae:    d003        ..      BEQ      0x80036b8 ; usart_baudrate_set + 72
        0x080036b0:    f5b04f1c    ...O    CMP      r0,#0x9c00
        0x080036b4:    d128        (.      BNE      0x8003708 ; usart_baudrate_set + 152
        0x080036b6:    e004        ..      B        0x80036c2 ; usart_baudrate_set + 82
        0x080036b8:    2003        .       MOVS     r0,#3
        0x080036ba:    f7feff53    ..S.    BL       rcu_clock_freq_get ; 0x8002564
        0x080036be:    4607        .F      MOV      r7,r0
        0x080036c0:    e023        #.      B        0x800370a ; usart_baudrate_set + 154
        0x080036c2:    2003        .       MOVS     r0,#3
        0x080036c4:    f7feff4e    ..N.    BL       rcu_clock_freq_get ; 0x8002564
        0x080036c8:    4607        .F      MOV      r7,r0
        0x080036ca:    e01e        ..      B        0x800370a ; usart_baudrate_set + 154
        0x080036cc:    2002        .       MOVS     r0,#2
        0x080036ce:    f7feff49    ..I.    BL       rcu_clock_freq_get ; 0x8002564
        0x080036d2:    4607        .F      MOV      r7,r0
        0x080036d4:    e019        ..      B        0x800370a ; usart_baudrate_set + 154
        0x080036d6:    2002        .       MOVS     r0,#2
        0x080036d8:    f7feff44    ..D.    BL       rcu_clock_freq_get ; 0x8002564
        0x080036dc:    4607        .F      MOV      r7,r0
        0x080036de:    e014        ..      B        0x800370a ; usart_baudrate_set + 154
        0x080036e0:    2002        .       MOVS     r0,#2
        0x080036e2:    f7feff3f    ..?.    BL       rcu_clock_freq_get ; 0x8002564
        0x080036e6:    4607        .F      MOV      r7,r0
        0x080036e8:    e00f        ..      B        0x800370a ; usart_baudrate_set + 154
        0x080036ea:    2002        .       MOVS     r0,#2
        0x080036ec:    f7feff3a    ..:.    BL       rcu_clock_freq_get ; 0x8002564
        0x080036f0:    4607        .F      MOV      r7,r0
        0x080036f2:    e00a        ..      B        0x800370a ; usart_baudrate_set + 154
        0x080036f4:    2002        .       MOVS     r0,#2
        0x080036f6:    f7feff35    ..5.    BL       rcu_clock_freq_get ; 0x8002564
        0x080036fa:    4607        .F      MOV      r7,r0
        0x080036fc:    e005        ..      B        0x800370a ; usart_baudrate_set + 154
        0x080036fe:    2002        .       MOVS     r0,#2
        0x08003700:    f7feff30    ..0.    BL       rcu_clock_freq_get ; 0x8002564
        0x08003704:    4607        .F      MOV      r7,r0
        0x08003706:    e000        ..      B        0x800370a ; usart_baudrate_set + 154
        0x08003708:    bf00        ..      NOP      
        0x0800370a:    bf00        ..      NOP      
        0x0800370c:    68e0        .h      LDR      r0,[r4,#0xc]
        0x0800370e:    f4004000    ...@    AND      r0,r0,#0x8000
        0x08003712:    b170        p.      CBZ      r0,0x8003732 ; usart_baudrate_set + 194
        0x08003714:    0078        x.      LSLS     r0,r7,#1
        0x08003716:    eb000055    ..U.    ADD      r0,r0,r5,LSR #1
        0x0800371a:    fbb0f6f5    ....    UDIV     r6,r0,r5
        0x0800371e:    f64f70f0    O..p    MOV      r0,#0xfff0
        0x08003722:    ea060800    ....    AND      r8,r6,r0
        0x08003726:    f3c60942    ..B.    UBFX     r9,r6,#1,#3
        0x0800372a:    ea480009    H...    ORR      r0,r8,r9
        0x0800372e:    60a0        .`      STR      r0,[r4,#8]
        0x08003730:    e00c        ..      B        0x800374c ; usart_baudrate_set + 220
        0x08003732:    eb070055    ..U.    ADD      r0,r7,r5,LSR #1
        0x08003736:    fbb0f6f5    ....    UDIV     r6,r0,r5
        0x0800373a:    f64f70f0    O..p    MOV      r0,#0xfff0
        0x0800373e:    ea060800    ....    AND      r8,r6,r0
        0x08003742:    f006090f    ....    AND      r9,r6,#0xf
        0x08003746:    ea480009    H...    ORR      r0,r8,r9
        0x0800374a:    60a0        .`      STR      r0,[r4,#8]
        0x0800374c:    e8bd87f0    ....    POP      {r4-r10,pc}
    $d
        0x08003750:    40007800    .x.@    DCD    1073772544
        0x08003754:    bfffbc00    ....    DCD    3221208064
    $t
    i.usart_data_transmit
    usart_data_transmit
        0x08003758:    f3c10208    ....    UBFX     r2,r1,#0,#9
        0x0800375c:    6042        B`      STR      r2,[r0,#4]
        0x0800375e:    4770        pG      BX       lr
    i.usart_deinit
    usart_deinit
        0x08003760:    b510        ..      PUSH     {r4,lr}
        0x08003762:    4604        .F      MOV      r4,r0
        0x08003764:    4933        3I      LDR      r1,[pc,#204] ; [0x8003834] = 0x40007800
        0x08003766:    1a60        `.      SUBS     r0,r4,r1
        0x08003768:    428c        .B      CMP      r4,r1
        0x0800376a:    d04d        M.      BEQ      0x8003808 ; usart_deinit + 168
        0x0800376c:    dc0c        ..      BGT      0x8003788 ; usart_deinit + 40
        0x0800376e:    4832        2H      LDR      r0,[pc,#200] ; [0x8003838] = 0xbfffbc00
        0x08003770:    4420         D      ADD      r0,r0,r4
        0x08003772:    b1e0        ..      CBZ      r0,0x80037ae ; usart_deinit + 78
        0x08003774:    f5b06f80    ...o    CMP      r0,#0x400
        0x08003778:    d022        ".      BEQ      0x80037c0 ; usart_deinit + 96
        0x0800377a:    f5b06f00    ...o    CMP      r0,#0x800
        0x0800377e:    d031        1.      BEQ      0x80037e4 ; usart_deinit + 132
        0x08003780:    f5b06f40    ..@o    CMP      r0,#0xc00
        0x08003784:    d152        R.      BNE      0x800382c ; usart_deinit + 204
        0x08003786:    e036        6.      B        0x80037f6 ; usart_deinit + 150
        0x08003788:    f5b06f80    ...o    CMP      r0,#0x400
        0x0800378c:    d045        E.      BEQ      0x800381a ; usart_deinit + 186
        0x0800378e:    f5b04f18    ...O    CMP      r0,#0x9800
        0x08003792:    d003        ..      BEQ      0x800379c ; usart_deinit + 60
        0x08003794:    f5b04f1c    ...O    CMP      r0,#0x9c00
        0x08003798:    d148        H.      BNE      0x800382c ; usart_deinit + 204
        0x0800379a:    e01a        ..      B        0x80037d2 ; usart_deinit + 114
        0x0800379c:    f6401004    @...    MOV      r0,#0x904
        0x080037a0:    f7feffaa    ....    BL       rcu_periph_reset_enable ; 0x80026f8
        0x080037a4:    f6401004    @...    MOV      r0,#0x904
        0x080037a8:    f7feff94    ....    BL       rcu_periph_reset_disable ; 0x80026d4
        0x080037ac:    e03f        ?.      B        0x800382e ; usart_deinit + 206
        0x080037ae:    f6400011    @...    MOV      r0,#0x811
        0x080037b2:    f7feffa1    ....    BL       rcu_periph_reset_enable ; 0x80026f8
        0x080037b6:    f6400011    @...    MOV      r0,#0x811
        0x080037ba:    f7feff8b    ....    BL       rcu_periph_reset_disable ; 0x80026d4
        0x080037be:    e036        6.      B        0x800382e ; usart_deinit + 206
        0x080037c0:    f6400012    @...    MOV      r0,#0x812
        0x080037c4:    f7feff98    ....    BL       rcu_periph_reset_enable ; 0x80026f8
        0x080037c8:    f6400012    @...    MOV      r0,#0x812
        0x080037cc:    f7feff82    ....    BL       rcu_periph_reset_disable ; 0x80026d4
        0x080037d0:    e02d        -.      B        0x800382e ; usart_deinit + 206
        0x080037d2:    f6401005    @...    MOV      r0,#0x905
        0x080037d6:    f7feff8f    ....    BL       rcu_periph_reset_enable ; 0x80026f8
        0x080037da:    f6401005    @...    MOV      r0,#0x905
        0x080037de:    f7feff79    ..y.    BL       rcu_periph_reset_disable ; 0x80026d4
        0x080037e2:    e024        $.      B        0x800382e ; usart_deinit + 206
        0x080037e4:    f6400013    @...    MOV      r0,#0x813
        0x080037e8:    f7feff86    ....    BL       rcu_periph_reset_enable ; 0x80026f8
        0x080037ec:    f6400013    @...    MOV      r0,#0x813
        0x080037f0:    f7feff70    ..p.    BL       rcu_periph_reset_disable ; 0x80026d4
        0x080037f4:    e01b        ..      B        0x800382e ; usart_deinit + 206
        0x080037f6:    f6400014    @...    MOV      r0,#0x814
        0x080037fa:    f7feff7d    ..}.    BL       rcu_periph_reset_enable ; 0x80026f8
        0x080037fe:    f6400014    @...    MOV      r0,#0x814
        0x08003802:    f7feff67    ..g.    BL       rcu_periph_reset_disable ; 0x80026d4
        0x08003806:    e012        ..      B        0x800382e ; usart_deinit + 206
        0x08003808:    f640001e    @...    MOV      r0,#0x81e
        0x0800380c:    f7feff74    ..t.    BL       rcu_periph_reset_enable ; 0x80026f8
        0x08003810:    f640001e    @...    MOV      r0,#0x81e
        0x08003814:    f7feff5e    ..^.    BL       rcu_periph_reset_disable ; 0x80026d4
        0x08003818:    e009        ..      B        0x800382e ; usart_deinit + 206
        0x0800381a:    f640001f    @...    MOV      r0,#0x81f
        0x0800381e:    f7feff6b    ..k.    BL       rcu_periph_reset_enable ; 0x80026f8
        0x08003822:    f640001f    @...    MOV      r0,#0x81f
        0x08003826:    f7feff55    ..U.    BL       rcu_periph_reset_disable ; 0x80026d4
        0x0800382a:    e000        ..      B        0x800382e ; usart_deinit + 206
        0x0800382c:    bf00        ..      NOP      
        0x0800382e:    bf00        ..      NOP      
        0x08003830:    bd10        ..      POP      {r4,pc}
    $d
        0x08003832:    0000        ..      DCW    0
        0x08003834:    40007800    .x.@    DCD    1073772544
        0x08003838:    bfffbc00    ....    DCD    3221208064
    $t
    i.usart_enable
    usart_enable
        0x0800383c:    68c1        .h      LDR      r1,[r0,#0xc]
        0x0800383e:    f4415100    A..Q    ORR      r1,r1,#0x2000
        0x08003842:    60c1        .`      STR      r1,[r0,#0xc]
        0x08003844:    4770        pG      BX       lr
    i.usart_flag_get
    usart_flag_get
        0x08003846:    b530        0.      PUSH     {r4,r5,lr}
        0x08003848:    4602        .F      MOV      r2,r0
        0x0800384a:    2000        .       MOVS     r0,#0
        0x0800384c:    eb021391    ....    ADD      r3,r2,r1,LSR #6
        0x08003850:    681b        .h      LDR      r3,[r3,#0]
        0x08003852:    f001051f    ....    AND      r5,r1,#0x1f
        0x08003856:    2401        .$      MOVS     r4,#1
        0x08003858:    40ac        .@      LSLS     r4,r4,r5
        0x0800385a:    4023        #@      ANDS     r3,r3,r4
        0x0800385c:    b10b        ..      CBZ      r3,0x8003862 ; usart_flag_get + 28
        0x0800385e:    2001        .       MOVS     r0,#1
        0x08003860:    e000        ..      B        0x8003864 ; usart_flag_get + 30
        0x08003862:    2000        .       MOVS     r0,#0
        0x08003864:    bd30        0.      POP      {r4,r5,pc}
    i.usart_parity_config
    usart_parity_config
        0x08003866:    68c2        .h      LDR      r2,[r0,#0xc]
        0x08003868:    f42262c0    "..b    BIC      r2,r2,#0x600
        0x0800386c:    60c2        .`      STR      r2,[r0,#0xc]
        0x0800386e:    68c2        .h      LDR      r2,[r0,#0xc]
        0x08003870:    430a        .C      ORRS     r2,r2,r1
        0x08003872:    60c2        .`      STR      r2,[r0,#0xc]
        0x08003874:    4770        pG      BX       lr
    i.usart_receive_config
    usart_receive_config
        0x08003876:    460a        .F      MOV      r2,r1
        0x08003878:    2100        .!      MOVS     r1,#0
        0x0800387a:    68c1        .h      LDR      r1,[r0,#0xc]
        0x0800387c:    f0210104    !...    BIC      r1,r1,#4
        0x08003880:    4311        .C      ORRS     r1,r1,r2
        0x08003882:    60c1        .`      STR      r1,[r0,#0xc]
        0x08003884:    4770        pG      BX       lr
    i.usart_stop_bit_set
    usart_stop_bit_set
        0x08003886:    6902        .i      LDR      r2,[r0,#0x10]
        0x08003888:    f4225240    ".@R    BIC      r2,r2,#0x3000
        0x0800388c:    6102        .a      STR      r2,[r0,#0x10]
        0x0800388e:    6902        .i      LDR      r2,[r0,#0x10]
        0x08003890:    430a        .C      ORRS     r2,r2,r1
        0x08003892:    6102        .a      STR      r2,[r0,#0x10]
        0x08003894:    4770        pG      BX       lr
    i.usart_transmit_config
    usart_transmit_config
        0x08003896:    460a        .F      MOV      r2,r1
        0x08003898:    2100        .!      MOVS     r1,#0
        0x0800389a:    68c1        .h      LDR      r1,[r0,#0xc]
        0x0800389c:    f0210108    !...    BIC      r1,r1,#8
        0x080038a0:    4311        .C      ORRS     r1,r1,r2
        0x080038a2:    60c1        .`      STR      r1,[r0,#0xc]
        0x080038a4:    4770        pG      BX       lr
    i.usart_word_length_set
    usart_word_length_set
        0x080038a6:    68c2        .h      LDR      r2,[r0,#0xc]
        0x080038a8:    f4225280    "..R    BIC      r2,r2,#0x1000
        0x080038ac:    60c2        .`      STR      r2,[r0,#0xc]
        0x080038ae:    68c2        .h      LDR      r2,[r0,#0xc]
        0x080038b0:    430a        .C      ORRS     r2,r2,r1
        0x080038b2:    60c2        .`      STR      r2,[r0,#0xc]
        0x080038b4:    4770        pG      BX       lr
        0x080038b6:    0000        ..      MOVS     r0,r0
    i.write_boot_update_param
    write_boot_update_param
        0x080038b8:    b510        ..      PUSH     {r4,lr}
        0x080038ba:    4604        .F      MOV      r4,r0
        0x080038bc:    4806        .H      LDR      r0,[pc,#24] ; [0x80038d8] = 0x20002244
        0x080038be:    6940        @i      LDR      r0,[r0,#0x14]
        0x080038c0:    f5a06180    ...a    SUB      r1,r0,#0x400
        0x080038c4:    2210        ."      MOVS     r2,#0x10
        0x080038c6:    4620         F      MOV      r0,r4
        0x080038c8:    f7fffb0c    ....    BL       sf_WriteBuffer ; 0x8002ee4
        0x080038cc:    b910        ..      CBNZ     r0,0x80038d4 ; write_boot_update_param + 28
        0x080038ce:    a003        ..      ADR      r0,{pc}+0xe ; 0x80038dc
        0x080038d0:    f7fdf86c    ..l.    BL       __0printf$8 ; 0x80009ac
        0x080038d4:    bd10        ..      POP      {r4,pc}
    $d
        0x080038d6:    0000        ..      DCW    0
        0x080038d8:    20002244    D".     DCD    536879684
        0x080038dc:    e49986e5    ....    DCD    3835266789
        0x080038e0:    a1e8b2b8    ....    DCD    2716381880
        0x080038e4:    616c468c    .Fla    DCD    1634485900
        0x080038e8:    87e56873    sh..    DCD    2279958643
        0x080038ec:    9994e9ba    ....    DCD    2576673210
        0x080038f0:    5c81bcef    ...\    DCD    1552006383
        0x080038f4:    00000a72    r...    DCD    2674
    $d.realdata
    .constdata
    memtblsize
        0x080038f8:    000003c0    ....    DCD    960
    memblksize
        0x080038fc:    00000020     ...    DCD    32
    memsize
        0x08003900:    00007800    .x..    DCD    30720
    Region$$Table$$Base
        0x08003904:    08003924    $9..    DCD    134232356
        0x08003908:    20000000    ...     DCD    536870912
        0x0800390c:    00000044    D...    DCD    68
        0x08003910:    080009cc    ....    DCD    134220236
        0x08003914:    08003968    h9..    DCD    134232424
        0x08003918:    20000044    D..     DCD    536870980
        0x0800391c:    0000b59c    ....    DCD    46492
        0x08003920:    080009dc    ....    DCD    134220252
    Region$$Table$$Limit

** Section #2 'RW_IRAM1' (SHT_PROGBITS) [SHF_ALLOC + SHF_WRITE]
    Size   : 68 bytes (alignment 4)
    Address: 0x20000000


** Section #3 'RW_IRAM1' (SHT_NOBITS) [SHF_ALLOC + SHF_WRITE]
    Size   : 46492 bytes (alignment 8)
    Address: 0x20000044


** Section #4 '.debug_abbrev' (SHT_PROGBITS)
    Size   : 1476 bytes


** Section #5 '.debug_frame' (SHT_PROGBITS)
    Size   : 4696 bytes


** Section #6 '.debug_info' (SHT_PROGBITS)
    Size   : 68604 bytes


** Section #7 '.debug_line' (SHT_PROGBITS)
    Size   : 24648 bytes


** Section #8 '.debug_loc' (SHT_PROGBITS)
    Size   : 9664 bytes


** Section #9 '.debug_macinfo' (SHT_PROGBITS)
    Size   : 112968 bytes


** Section #10 '.debug_pubnames' (SHT_PROGBITS)
    Size   : 5154 bytes


** Section #11 '.symtab' (SHT_SYMTAB)
    Size   : 12816 bytes (alignment 4)
    String table #12 '.strtab'
    Last local symbol no. 504


** Section #12 '.strtab' (SHT_STRTAB)
    Size   : 12656 bytes


** Section #13 '.note' (SHT_NOTE)
    Size   : 28 bytes (alignment 4)


** Section #14 '.comment' (SHT_PROGBITS)
    Size   : 44872 bytes


** Section #15 '.shstrtab' (SHT_STRTAB)
    Size   : 156 bytes


address     size       variable name                            type
0x2000002c  0x14       mallco_dev                               _m_mallco_dev
0x2000002c  0x4        mallco_dev.init                          pointer to function 
0x20000030  0x4        mallco_dev.perused                       pointer to function 
0x20000034  0x4        mallco_dev.membase                       array[1] of pointer to uint8_t
0x20000038  0x4        mallco_dev.memmap                        array[1] of pointer to uint16_t
0x2000003c  0x1        mallco_dev.memrdy                        array[1] of uint8_t

address     size       variable name                            type
0x20003260  0x7800     mem1base                                 array[30720] of uint8_t

address     size       variable name                            type
0x2000aa60  0x780      mem1mapbase                              array[960] of uint16_t

address     size       variable name                            type
0x080038fc  0x4        memblksize                               array[1] of const uint32_t

address     size       variable name                            type
0x08003900  0x4        memsize                                  array[1] of const uint32_t

address     size       variable name                            type
0x080038f8  0x4        memtblsize                               array[1] of const uint32_t

address     size       variable name                            type
0x20000028  0x4        g_iRunTime                               volatile uint32_t

address     size       variable name                            type
0x20002244  0x1c       g_tSF                                    SFLASH_T
0x20002244  0x4        g_tSF.ChipID                             uint32_t
0x20002248  0x10       g_tSF.ChipName                           array[16] of char
0x20002258  0x4        g_tSF.TotalSize                          uint32_t
0x2000225c  0x2        g_tSF.SectorSize                         uint16_t

address     size       variable name                            type
0x20002260  0x1000     s_spiBuf                                 array[4096] of uint8_t

address     size       variable name                            type
0x2000001c  0x4        g_spiLen                                 uint32_t

address     size       variable name                            type
0x20001244  0x1000     g_spiRxBuf                               array[4096] of uint8_t

address     size       variable name                            type
0x20000244  0x1000     g_spiTxBuf                               array[4096] of uint8_t

address     size       variable name                            type
0x20000020  0x1        g_spi_busy                               uint8_t

address     size       variable name                            type
0x20000014  0x4        s_BaudRatePrescaler                      uint32_t

address     size       variable name                            type
0x20000018  0x4        s_CLKPolarity_Phase                      uint32_t

address     size       variable name                            type
0x20000024  0x4        wTransferState                           volatile uint32_t

address     size       variable name                            type
0x20000010  0x4        g_fac_us                                 uint32_t

address     size       variable name                            type
0x20000044  0x200      iapbuf                                   array[128] of uint32_t

address     size       variable name                            type
0x2000000c  0x4        jump2app                                 iapfun

address     size       variable name                            type
0x20000008  0x4        delay                                    volatile uint32_t

address     size       variable name                            type
0x20000004  0x4        SystemCoreClock                          uint32_t

